
CH32V307-FreeRTOS.elf:     file format elf32-littleriscv
CH32V307-FreeRTOS.elf
architecture: riscv:rv32, flags 0x00000112:
EXEC_P, HAS_SYMS, D_PAGED
start address 0x00000000

Program Header:
    LOAD off    0x00001000 vaddr 0x00000000 paddr 0x00000000 align 2**12
         filesz 0x00002ab8 memsz 0x00002ab8 flags r-x
    LOAD off    0x00004000 vaddr 0x20000000 paddr 0x00002ab8 align 2**12
         filesz 0x00000028 memsz 0x000032a4 flags rw-
    LOAD off    0x00004800 vaddr 0x20007800 paddr 0x20007800 align 2**12
         filesz 0x00000000 memsz 0x00000800 flags rw-

Sections:
Idx Name          Size      VMA       LMA       File off  Algn
  0 .init         00000038  00000000  00000000  00001000  2**1
                  CONTENTS, ALLOC, LOAD, READONLY, CODE
  1 .vector       000001c8  00000038  00000038  00001038  2**1
                  CONTENTS, ALLOC, LOAD, READONLY, CODE
  2 .text         000028b8  00000200  00000200  00001200  2**8
                  CONTENTS, ALLOC, LOAD, READONLY, CODE
  3 .fini         00000000  00002ab8  00002ab8  00004028  2**0
                  CONTENTS, ALLOC, LOAD, CODE
  4 .dalign       00000000  20000000  20000000  00004028  2**0
                  CONTENTS
  5 .dlalign      00000000  00002ab8  00002ab8  00004028  2**0
                  CONTENTS
  6 .data         00000028  20000000  00002ab8  00004000  2**2
                  CONTENTS, ALLOC, LOAD, DATA
  7 .bss          0000327c  20000028  00002ae0  00004028  2**2
                  ALLOC
  8 .stack        00000800  20007800  20007800  00004800  2**0
                  ALLOC
  9 .debug_info   0001370e  00000000  00000000  00004028  2**0
                  CONTENTS, READONLY, DEBUGGING
 10 .debug_abbrev 00002e53  00000000  00000000  00017736  2**0
                  CONTENTS, READONLY, DEBUGGING
 11 .debug_aranges 000008f0  00000000  00000000  0001a590  2**3
                  CONTENTS, READONLY, DEBUGGING
 12 .debug_ranges 00000d38  00000000  00000000  0001ae80  2**3
                  CONTENTS, READONLY, DEBUGGING
 13 .debug_line   00010e90  00000000  00000000  0001bbb8  2**0
                  CONTENTS, READONLY, DEBUGGING
 14 .debug_str    000039f2  00000000  00000000  0002ca48  2**0
                  CONTENTS, READONLY, DEBUGGING
 15 .comment      00000033  00000000  00000000  0003043a  2**0
                  CONTENTS, READONLY
 16 .debug_frame  000017fc  00000000  00000000  00030470  2**2
                  CONTENTS, READONLY, DEBUGGING
 17 .debug_loc    00006de4  00000000  00000000  00031c6c  2**0
                  CONTENTS, READONLY, DEBUGGING
SYMBOL TABLE:
00000000 l    d  .init	00000000 .init
00000038 l    d  .vector	00000000 .vector
00000200 l    d  .text	00000000 .text
00002ab8 l    d  .fini	00000000 .fini
20000000 l    d  .dalign	00000000 .dalign
00002ab8 l    d  .dlalign	00000000 .dlalign
20000000 l    d  .data	00000000 .data
20000028 l    d  .bss	00000000 .bss
20007800 l    d  .stack	00000000 .stack
00000000 l    d  .debug_info	00000000 .debug_info
00000000 l    d  .debug_abbrev	00000000 .debug_abbrev
00000000 l    d  .debug_aranges	00000000 .debug_aranges
00000000 l    d  .debug_ranges	00000000 .debug_ranges
00000000 l    d  .debug_line	00000000 .debug_line
00000000 l    d  .debug_str	00000000 .debug_str
00000000 l    d  .comment	00000000 .comment
00000000 l    d  .debug_frame	00000000 .debug_frame
00000000 l    d  .debug_loc	00000000 .debug_loc
00000000 l    df *ABS*	00000000 ./Startup/startup_ch32v30x_D8C.o
00000038 l       .vector	00000000 _vector_base
00000000 l    df *ABS*	00000000 ./FreeRTOS/portable/GCC/RISC-V/portASM.o
00000264 l       .text	00000000 processed_source
00000428 l       .text	00000000 chip_specific_stack_frame
00000000 l    df *ABS*	00000000 ch32v30x_it.c
00000000 l    df *ABS*	00000000 main.c
00000000 l    df *ABS*	00000000 system_ch32v30x.c
00000000 l    df *ABS*	00000000 ch32v30x_gpio.c
00000000 l    df *ABS*	00000000 ch32v30x_misc.c
00000000 l    df *ABS*	00000000 ch32v30x_rcc.c
20000000 l     O .data	00000010 APBAHBPrescTable
20000014 l     O .data	00000004 ADCPrescTable
00000000 l    df *ABS*	00000000 ch32v30x_usart.c
00000000 l    df *ABS*	00000000 heap_4.c
00000c76 l     F .text	0000004c prvInsertBlockIntoFreeList
200000ac l     O .bss	00003000 ucHeap
20000038 l     O .bss	00000004 pxEnd
2000003c l     O .bss	00000004 xBlockAllocatedBit
20000040 l     O .bss	00000004 xFreeBytesRemaining
20000044 l     O .bss	00000004 xMinimumEverFreeBytesRemaining
20000048 l     O .bss	00000004 xNumberOfSuccessfulAllocations
2000004c l     O .bss	00000004 xNumberOfSuccessfulFrees
20000050 l     O .bss	00000008 xStart
00000000 l    df *ABS*	00000000 port.c
20000018 l     O .data	00000004 uxCriticalNesting
00000000 l    df *ABS*	00000000 list.c
00000000 l    df *ABS*	00000000 queue.c
000010b6 l     F .text	0000001a prvIsQueueEmpty
000010d0 l     F .text	00000028 prvCopyDataFromQueue
000010f8 l     F .text	0000006e prvUnlockQueue
00000000 l    df *ABS*	00000000 tasks.c
00001494 l     F .text	00000024 prvResetNextTaskUnblockTime
000014b8 l     F .text	000000a0 prvAddCurrentTaskToDelayedList
00001558 l     F .text	0000004c prvIdleTask
200030ec l     O .bss	0000012c pxReadyTasksLists
20003218 l     O .bss	00000014 xDelayedTaskList1
2000322c l     O .bss	00000014 xDelayedTaskList2
20003240 l     O .bss	00000014 xPendingReadyList
20003254 l     O .bss	00000014 xSuspendedTaskList
20003268 l     O .bss	00000014 xTasksWaitingTermination
2000005c l     O .bss	00000004 pxDelayedTaskList
20000060 l     O .bss	00000004 pxOverflowDelayedTaskList
20000064 l     O .bss	00000004 uxCurrentNumberOfTasks
20000068 l     O .bss	00000004 uxDeletedTasksWaitingCleanUp
2000006c l     O .bss	00000004 uxSchedulerSuspended
20000070 l     O .bss	00000004 uxTaskNumber
20000074 l     O .bss	00000004 uxTopReadyPriority
20000078 l     O .bss	00000004 xIdleTaskHandle
2000007c l     O .bss	00000004 xNextTaskUnblockTime
20000080 l     O .bss	00000004 xNumOfOverflows
20000084 l     O .bss	00000004 xPendedTicks
20000088 l     O .bss	00000004 xSchedulerRunning
2000008c l     O .bss	00000004 xTickCount
20000090 l     O .bss	00000004 xYieldPending
00000000 l    df *ABS*	00000000 timers.c
00001f0e l     F .text	00000066 prvCheckForValidListAndQueue
00001f74 l     F .text	00000046 prvInsertTimerInActiveList
00001fba l     F .text	00000028 prvReloadTimer
00001fe2 l     F .text	00000044 prvProcessExpiredTimer
00002026 l     F .text	0000002e prvSwitchTimerLists
00002054 l     F .text	0000018a prvTimerTask
2000327c l     O .bss	00000014 xActiveTimerList1
20003290 l     O .bss	00000014 xActiveTimerList2
20000094 l     O .bss	00000004 pxCurrentTimerList
20000098 l     O .bss	00000004 pxOverflowTimerList
2000009c l     O .bss	00000004 xLastTime.6268
200000a0 l     O .bss	00000004 xTimerQueue
200000a4 l     O .bss	00000004 xTimerTaskHandle
00000000 l    df *ABS*	00000000 debug.c
200000a8 l     O .bss	00000002 p_ms
200000aa l     O .bss	00000001 p_us
00000000 l    df *ABS*	00000000 wchprintf.c
00000000 l    df *ABS*	00000000 memcpy.c
0000250e  w    F .text	00000004 printDouble
000007f4  w      .text	00000000 EXTI2_IRQHandler
0000083e  w      .text	00000000 TIM8_TRG_COM_IRQHandler
00000840  w      .text	00000000 TIM8_CC_IRQHandler
00000876  w      .text	00000000 UART8_IRQHandler
00002512  w    F .text	00000316 print
0000100c g     F .text	00000042 vPortExitCritical
00002828  w    F .text	00000024 printf
20000810 g       .data	00000000 __global_pointer$
000004ee g     F .text	00000028 .hidden __riscv_save_8
0000081a  w      .text	00000000 TIM1_CC_IRQHandler
0000054a g     F .text	00000002 HardFault_Handler
0000143e g     F .text	00000056 vQueueWaitForMessageRestricted
00002424  w    F .text	000000e6 printInt
0000053a g     F .text	0000000c .hidden __riscv_restore_3
00000850  w      .text	00000000 TIM6_IRQHandler
00000fbe g     F .text	00000038 SysTick_Handler
000007e6  w      .text	00000000 PVD_IRQHandler
00000846  w      .text	00000000 SDIO_IRQHandler
00000878  w      .text	00000000 TIM9_BRK_IRQHandler
00000526 g     F .text	00000020 .hidden __riscv_restore_10
0000088c  w      .text	00000000 DMA2_Channel8_IRQHandler
00000546 g     F .text	00000004 NMI_Handler
00000866  w      .text	00000000 CAN2_RX1_IRQHandler
000007f6  w      .text	00000000 EXTI3_IRQHandler
000004ee g     F .text	00000028 .hidden __riscv_save_11
20000058 g     O .bss	00000004 pxCurrentTCB
0000086e  w      .text	00000000 USBHS_IRQHandler
00000c6c g     F .text	0000000a USART_GetFlagStatus
0000088e  w      .text	00000000 DMA2_Channel9_IRQHandler
00000886  w      .text	00000000 TIM10_CC_IRQHandler
20000028 g       .bss	00000000 _sbss
00000800 g       *ABS*	00000000 __stack_size
0000226c g     F .text	0000005a USART_Printf_Init
00001e08 g     F .text	00000016 vTaskInternalSetTimeOutState
0000053a g     F .text	0000000c .hidden __riscv_restore_2
00000f30 g     F .text	0000008e xPortStartScheduler
00002896 g     F .text	000000b2 memcpy
00001c5e g     F .text	00000048 vTaskPlaceOnEventList
000005d0 g     F .text	00000026 task2_task
00000ef2  w    F .text	0000003e vPortSetupTimerInterrupt
0000250a  w    F .text	00000004 printLongLongInt
000007f0  w      .text	00000000 EXTI0_IRQHandler
00000826  w      .text	00000000 I2C2_EV_IRQHandler
00000884  w      .text	00000000 TIM10_TRG_COM_IRQHandler
0000284c g     F .text	0000004a puts
00000e4c g     F .text	000000a6 vPortFree
20000010 g     O .data	00000004 SystemCoreClock
20008000 g       .stack	00000000 __freertos_irq_stack_top
00000038 g       .init	00000000 _einit
00000b78 g     F .text	0000001e RCC_APB2PeriphClockCmd
000004e6 g     F .text	00000030 .hidden __riscv_save_12
00000868  w      .text	00000000 CAN2_SCE_IRQHandler
00000808  w      .text	00000000 ADC1_2_IRQHandler
00000926 g     F .text	000000c0 GPIO_Init
000007de  w      .text	00000000 Break_Point_Handler
00000526 g     F .text	00000020 .hidden __riscv_restore_11
20000034 g     O .bss	00000004 NVIC_Priority_Group
0000082a  w      .text	00000000 SPI1_IRQHandler
00000c4e g     F .text	00000016 USART_Cmd
000007e8  w      .text	00000000 TAMPER_IRQHandler
00000516 g     F .text	0000000c .hidden __riscv_save_1
0000053a g     F .text	0000000c .hidden __riscv_restore_0
00001062 g     F .text	00000006 vListInitialiseItem
000004fc g     F .text	0000001a .hidden __riscv_save_7
0000128c g     F .text	00000146 xQueueReceive
00000864  w      .text	00000000 CAN2_RX0_IRQHandler
200030ac g     O .bss	00000040 xQueueRegistry
0000083c  w      .text	00000000 TIM8_UP_IRQHandler
000007da  w      .text	00000000 Ecall_M_Mode_Handler
20007800 g       .stack	00000000 _heap_end
00000530 g     F .text	00000016 .hidden __riscv_restore_5
20000030 g     O .bss	00000001 aaa
00000856  w      .text	00000000 DMA2_Channel2_IRQHandler
00000800  w      .text	00000000 DMA1_Channel4_IRQHandler
00000cc2 g     F .text	0000018a pvPortMalloc
0000104e g     F .text	00000014 vListInitialise
0000087a  w      .text	00000000 TIM9_UP_IRQHandler
00000530 g     F .text	00000016 .hidden __riscv_restore_6
00000832  w      .text	00000000 USART3_IRQHandler
00001848 g     F .text	0000000a xTaskGetTickCount
000007ea  w      .text	00000000 RTC_IRQHandler
200032a4 g       .bss	00000000 _ebss
00000806  w      .text	00000000 DMA1_Channel7_IRQHandler
0000080e  w      .text	00000000 CAN1_RX1_IRQHandler
0000223a g     F .text	00000032 Delay_Init
00000870  w      .text	00000000 DVP_IRQHandler
0000084e  w      .text	00000000 UART5_IRQHandler
00001d1c g     F .text	000000ec xTaskRemoveFromEventList
000009f0 g     F .text	00000004 GPIO_SetBits
00000820  w      .text	00000000 TIM4_IRQHandler
20000032 g     O .bss	00000001 last_filt_key_state
000004ee g     F .text	00000028 .hidden __riscv_save_9
00000854  w      .text	00000000 DMA2_Channel1_IRQHandler
000004fc g     F .text	0000001a .hidden __riscv_save_4
00000822  w      .text	00000000 I2C1_EV_IRQHandler
20000020 g     O .data	00000004 xISRStackTop
000005f6 g     F .text	0000004c GPIO_Toggle_INIT
00000a02 g     F .text	00000176 RCC_GetClocksFreq
00000804  w      .text	00000000 DMA1_Channel6_IRQHandler
0000084c  w      .text	00000000 UART4_IRQHandler
0000085a  w      .text	00000000 DMA2_Channel4_IRQHandler
00000b96 g     F .text	000000b8 USART_Init
00001e1e g     F .text	000000c8 xTaskCheckForTimeOut
0000081e  w      .text	00000000 TIM3_IRQHandler
000007ee  w      .text	00000000 RCC_IRQHandler
00000516 g     F .text	0000000c .hidden __riscv_save_3
00000818  w      .text	00000000 TIM1_TRG_COM_IRQHandler
000007fa  w      .text	00000000 DMA1_Channel1_IRQHandler
00000000 g       .init	00000000 _start
0000088a  w      .text	00000000 DMA2_Channel7_IRQHandler
00001838 g     F .text	00000010 vTaskSuspendAll
0000234c  w    F .text	000000d8 prints
00001096 g     F .text	00000020 uxListRemove
00000834  w      .text	00000000 EXTI15_10_IRQHandler
20000028 g     O .bss	00000004 Task1Task_Handler
00001bc4 g     F .text	0000009a vTaskSwitchContext
00001ca6 g     F .text	00000076 vTaskPlaceOnEventListRestricted
000009f4 g     F .text	00000004 GPIO_ResetBits
00000852  w      .text	00000000 TIM7_IRQHandler
00000862  w      .text	00000000 CAN2_TX_IRQHandler
20000000 g       .dalign	00000000 _data_vma
00000848  w      .text	00000000 TIM5_IRQHandler
00000812  w      .text	00000000 EXTI9_5_IRQHandler
000004ee g     F .text	00000028 .hidden __riscv_save_10
00000860  w      .text	00000000 ETH_WKUP_IRQHandler
00000530 g     F .text	00000016 .hidden __riscv_restore_4
00000526 g     F .text	00000020 .hidden __riscv_restore_8
000004fc g     F .text	0000001a .hidden __riscv_save_6
0000082c  w      .text	00000000 SPI2_IRQHandler
00000526 g     F .text	00000020 .hidden __riscv_restore_9
00000530 g     F .text	00000016 .hidden __riscv_restore_7
00000642 g     F .text	0000009a main
00000880  w      .text	00000000 TIM10_BRK_IRQHandler
0000087e  w      .text	00000000 TIM9_CC_IRQHandler
00001068 g     F .text	0000002e vListInsert
0000085c  w      .text	00000000 DMA2_Channel5_IRQHandler
000021de g     F .text	0000005c xTimerCreateTimerTask
00000802  w      .text	00000000 DMA1_Channel5_IRQHandler
000007f8  w      .text	00000000 EXTI4_IRQHandler
00001222 g     F .text	0000006a xQueueGenericCreate
0000080c  w      .text	00000000 USB_LP_CAN1_RX0_IRQHandler
000006dc g     F .text	000000fa SystemInit
00000842  w      .text	00000000 RNG_IRQHandler
00002304  w    F .text	00000048 printchar
000019fc g     F .text	00000166 xTaskResumeAll
2000001c g     O .data	00000004 uxTopUsedPriority
0000080a  w      .text	00000000 USB_HP_CAN1_TX_IRQHandler
000017a8 g     F .text	00000090 vTaskStartScheduler
00000000 g       .init	00000000 _sinit
00000300 g       .text	00000000 xPortStartFirstTask
000007fe  w      .text	00000000 DMA1_Channel3_IRQHandler
00000844  w      .text	00000000 FSMC_IRQHandler
0000085e  w      .text	00000000 ETH_IRQHandler
00000816  w      .text	00000000 TIM1_UP_IRQHandler
000007e4  w      .text	00000000 WWDG_IRQHandler
0000086c  w      .text	00000000 USBHSWakeup_IRQHandler
00000892  w      .text	00000000 DMA2_Channel11_IRQHandler
000007dc  w      .text	00000000 Ecall_U_Mode_Handler
00001ee6 g     F .text	0000000c vTaskMissedYield
00000888  w      .text	00000000 DMA2_Channel6_IRQHandler
0000081c  w      .text	00000000 TIM2_IRQHandler
20008000 g       .stack	00000000 _eusrstack
00000516 g     F .text	0000000c .hidden __riscv_save_2
00000200 g       .text	00000000 SW_Handler
000013d2 g     F .text	0000006c vQueueAddToRegistry
00001852 g     F .text	000001aa xTaskIncrementTick
00000814  w      .text	00000000 TIM1_BRK_IRQHandler
00000c64 g     F .text	00000008 USART_SendData
00000890  w      .text	00000000 DMA2_Channel10_IRQHandler
000007f2  w      .text	00000000 EXTI1_IRQHandler
000004fc g     F .text	0000001a .hidden __riscv_save_5
00001166 g     F .text	000000bc xQueueGenericReset
000022c6 g     F .text	0000003e _write
20000028 g       .data	00000000 _edata
200032a4 g       .bss	00000000 _end
00000836  w      .text	00000000 RTCAlarm_IRQHandler
000015a4 g     F .text	00000204 xTaskCreate
00002ab8 g       .dlalign	00000000 _data_lma
00000882  w      .text	00000000 TIM10_UP_IRQHandler
0000087c  w      .text	00000000 TIM9_TRG_COM_IRQHandler
00000874  w      .text	00000000 UART7_IRQHandler
00000830  w      .text	00000000 USART2_IRQHandler
00000872  w      .text	00000000 UART6_IRQHandler
0000054c g     F .text	00000084 task1_task
00000828  w      .text	00000000 I2C2_ER_IRQHandler
00001b62 g     F .text	00000062 vTaskDelay
000007fc  w      .text	00000000 DMA1_Channel2_IRQHandler
20000033 g     O .bss	00000001 old_key_state
00000522 g     F .text	00000024 .hidden __riscv_restore_12
0000083a  w      .text	00000000 TIM8_BRK_IRQHandler
00001ef2 g     F .text	0000001c xTaskGetSchedulerState
00000894  w      .text	00000000 handle_reset
00000810  w      .text	00000000 CAN1_SCE_IRQHandler
000007ec  w      .text	00000000 FLASH_IRQHandler
00000516 g     F .text	0000000c .hidden __riscv_save_0
0000082e  w      .text	00000000 USART1_IRQHandler
00000400 g       .text	00000000 pxPortInitialiseStack
0000086a  w      .text	00000000 OTG_FS_IRQHandler
0000084a  w      .text	00000000 SPI3_IRQHandler
00000824  w      .text	00000000 I2C1_ER_IRQHandler
000009f8 g     F .text	0000000a NVIC_PriorityGroupConfig
00000ff6 g     F .text	00000016 vPortEnterCritical
0000053a g     F .text	0000000c .hidden __riscv_restore_1
20000031 g     O .bss	00000001 key_filt_val
2000002c g     O .bss	00000004 Task2Task_Handler
000009e6 g     F .text	0000000a GPIO_ReadInputDataBit
00000838  w      .text	00000000 USBWakeUp_IRQHandler
00000858  w      .text	00000000 DMA2_Channel3_IRQHandler



Disassembly of section .init:

00000000 <_sinit>:
   0:	0950006f          	j	894 <handle_reset>
   4:	00000013          	nop
   8:	00000013          	nop
   c:	00000013          	nop
  10:	00000013          	nop
  14:	00000013          	nop
  18:	00000013          	nop
  1c:	00000013          	nop
  20:	00000013          	nop
  24:	00000013          	nop
  28:	00000013          	nop
  2c:	00000013          	nop
  30:	00000013          	nop
  34:	00100073          	ebreak

Disassembly of section .vector:

00000038 <_vector_base>:
	...
  40:	0546                	slli	a0,a0,0x11
  42:	0000                	unimp
  44:	054a                	slli	a0,a0,0x12
  46:	0000                	unimp
  48:	0000                	unimp
  4a:	0000                	unimp
  4c:	07da                	slli	a5,a5,0x16
	...
  56:	0000                	unimp
  58:	07dc                	addi	a5,sp,964
  5a:	0000                	unimp
  5c:	07de                	slli	a5,a5,0x17
	...
  66:	0000                	unimp
  68:	0fbe                	slli	t6,t6,0xf
  6a:	0000                	unimp
  6c:	0000                	unimp
  6e:	0000                	unimp
  70:	0200                	addi	s0,sp,256
  72:	0000                	unimp
  74:	0000                	unimp
  76:	0000                	unimp
  78:	07e4                	addi	s1,sp,972
  7a:	0000                	unimp
  7c:	07e6                	slli	a5,a5,0x19
  7e:	0000                	unimp
  80:	07e8                	addi	a0,sp,972
  82:	0000                	unimp
  84:	07ea                	slli	a5,a5,0x1a
  86:	0000                	unimp
  88:	07ec                	addi	a1,sp,972
  8a:	0000                	unimp
  8c:	07ee                	slli	a5,a5,0x1b
  8e:	0000                	unimp
  90:	07f0                	addi	a2,sp,972
  92:	0000                	unimp
  94:	07f2                	slli	a5,a5,0x1c
  96:	0000                	unimp
  98:	07f4                	addi	a3,sp,972
  9a:	0000                	unimp
  9c:	07f6                	slli	a5,a5,0x1d
  9e:	0000                	unimp
  a0:	07f8                	addi	a4,sp,972
  a2:	0000                	unimp
  a4:	07fa                	slli	a5,a5,0x1e
  a6:	0000                	unimp
  a8:	07fc                	addi	a5,sp,972
  aa:	0000                	unimp
  ac:	07fe                	slli	a5,a5,0x1f
  ae:	0000                	unimp
  b0:	0800                	addi	s0,sp,16
  b2:	0000                	unimp
  b4:	0802                	c.slli64	a6
  b6:	0000                	unimp
  b8:	0804                	addi	s1,sp,16
  ba:	0000                	unimp
  bc:	0806                	slli	a6,a6,0x1
  be:	0000                	unimp
  c0:	0808                	addi	a0,sp,16
  c2:	0000                	unimp
  c4:	080a                	slli	a6,a6,0x2
  c6:	0000                	unimp
  c8:	080c                	addi	a1,sp,16
  ca:	0000                	unimp
  cc:	080e                	slli	a6,a6,0x3
  ce:	0000                	unimp
  d0:	0810                	addi	a2,sp,16
  d2:	0000                	unimp
  d4:	0812                	slli	a6,a6,0x4
  d6:	0000                	unimp
  d8:	0814                	addi	a3,sp,16
  da:	0000                	unimp
  dc:	0816                	slli	a6,a6,0x5
  de:	0000                	unimp
  e0:	0818                	addi	a4,sp,16
  e2:	0000                	unimp
  e4:	081a                	slli	a6,a6,0x6
  e6:	0000                	unimp
  e8:	081c                	addi	a5,sp,16
  ea:	0000                	unimp
  ec:	081e                	slli	a6,a6,0x7
  ee:	0000                	unimp
  f0:	0820                	addi	s0,sp,24
  f2:	0000                	unimp
  f4:	0822                	slli	a6,a6,0x8
  f6:	0000                	unimp
  f8:	0824                	addi	s1,sp,24
  fa:	0000                	unimp
  fc:	0826                	slli	a6,a6,0x9
  fe:	0000                	unimp
 100:	0828                	addi	a0,sp,24
 102:	0000                	unimp
 104:	082a                	slli	a6,a6,0xa
 106:	0000                	unimp
 108:	082c                	addi	a1,sp,24
 10a:	0000                	unimp
 10c:	082e                	slli	a6,a6,0xb
 10e:	0000                	unimp
 110:	0830                	addi	a2,sp,24
 112:	0000                	unimp
 114:	0832                	slli	a6,a6,0xc
 116:	0000                	unimp
 118:	0834                	addi	a3,sp,24
 11a:	0000                	unimp
 11c:	0836                	slli	a6,a6,0xd
 11e:	0000                	unimp
 120:	0838                	addi	a4,sp,24
 122:	0000                	unimp
 124:	083a                	slli	a6,a6,0xe
 126:	0000                	unimp
 128:	083c                	addi	a5,sp,24
 12a:	0000                	unimp
 12c:	083e                	slli	a6,a6,0xf
 12e:	0000                	unimp
 130:	0840                	addi	s0,sp,20
 132:	0000                	unimp
 134:	0842                	slli	a6,a6,0x10
 136:	0000                	unimp
 138:	0844                	addi	s1,sp,20
 13a:	0000                	unimp
 13c:	0846                	slli	a6,a6,0x11
 13e:	0000                	unimp
 140:	0848                	addi	a0,sp,20
 142:	0000                	unimp
 144:	084a                	slli	a6,a6,0x12
 146:	0000                	unimp
 148:	084c                	addi	a1,sp,20
 14a:	0000                	unimp
 14c:	084e                	slli	a6,a6,0x13
 14e:	0000                	unimp
 150:	0850                	addi	a2,sp,20
 152:	0000                	unimp
 154:	0852                	slli	a6,a6,0x14
 156:	0000                	unimp
 158:	0854                	addi	a3,sp,20
 15a:	0000                	unimp
 15c:	0856                	slli	a6,a6,0x15
 15e:	0000                	unimp
 160:	0858                	addi	a4,sp,20
 162:	0000                	unimp
 164:	085a                	slli	a6,a6,0x16
 166:	0000                	unimp
 168:	085c                	addi	a5,sp,20
 16a:	0000                	unimp
 16c:	085e                	slli	a6,a6,0x17
 16e:	0000                	unimp
 170:	0860                	addi	s0,sp,28
 172:	0000                	unimp
 174:	0862                	slli	a6,a6,0x18
 176:	0000                	unimp
 178:	0864                	addi	s1,sp,28
 17a:	0000                	unimp
 17c:	0866                	slli	a6,a6,0x19
 17e:	0000                	unimp
 180:	0868                	addi	a0,sp,28
 182:	0000                	unimp
 184:	086a                	slli	a6,a6,0x1a
 186:	0000                	unimp
 188:	086c                	addi	a1,sp,28
 18a:	0000                	unimp
 18c:	086e                	slli	a6,a6,0x1b
 18e:	0000                	unimp
 190:	0870                	addi	a2,sp,28
 192:	0000                	unimp
 194:	0872                	slli	a6,a6,0x1c
 196:	0000                	unimp
 198:	0874                	addi	a3,sp,28
 19a:	0000                	unimp
 19c:	0876                	slli	a6,a6,0x1d
 19e:	0000                	unimp
 1a0:	0878                	addi	a4,sp,28
 1a2:	0000                	unimp
 1a4:	087a                	slli	a6,a6,0x1e
 1a6:	0000                	unimp
 1a8:	087c                	addi	a5,sp,28
 1aa:	0000                	unimp
 1ac:	087e                	slli	a6,a6,0x1f
 1ae:	0000                	unimp
 1b0:	0880                	addi	s0,sp,80
 1b2:	0000                	unimp
 1b4:	0882                	c.slli64	a7
 1b6:	0000                	unimp
 1b8:	0884                	addi	s1,sp,80
 1ba:	0000                	unimp
 1bc:	0886                	slli	a7,a7,0x1
 1be:	0000                	unimp
 1c0:	0888                	addi	a0,sp,80
 1c2:	0000                	unimp
 1c4:	088a                	slli	a7,a7,0x2
 1c6:	0000                	unimp
 1c8:	088c                	addi	a1,sp,80
 1ca:	0000                	unimp
 1cc:	088e                	slli	a7,a7,0x3
 1ce:	0000                	unimp
 1d0:	0890                	addi	a2,sp,80
 1d2:	0000                	unimp
 1d4:	0892                	slli	a7,a7,0x4
	...

Disassembly of section .text:

00000200 <SW_Handler>:
     200:	f8810113          	addi	sp,sp,-120
     204:	c206                	sw	ra,4(sp)
     206:	c416                	sw	t0,8(sp)
     208:	c61a                	sw	t1,12(sp)
     20a:	c81e                	sw	t2,16(sp)
     20c:	ca22                	sw	s0,20(sp)
     20e:	cc26                	sw	s1,24(sp)
     210:	ce2a                	sw	a0,28(sp)
     212:	d02e                	sw	a1,32(sp)
     214:	d232                	sw	a2,36(sp)
     216:	d436                	sw	a3,40(sp)
     218:	d63a                	sw	a4,44(sp)
     21a:	d83e                	sw	a5,48(sp)
     21c:	da42                	sw	a6,52(sp)
     21e:	dc46                	sw	a7,56(sp)
     220:	de4a                	sw	s2,60(sp)
     222:	c0ce                	sw	s3,64(sp)
     224:	c2d2                	sw	s4,68(sp)
     226:	c4d6                	sw	s5,72(sp)
     228:	c6da                	sw	s6,76(sp)
     22a:	c8de                	sw	s7,80(sp)
     22c:	cae2                	sw	s8,84(sp)
     22e:	cce6                	sw	s9,88(sp)
     230:	ceea                	sw	s10,92(sp)
     232:	d0ee                	sw	s11,96(sp)
     234:	d2f2                	sw	t3,100(sp)
     236:	d4f6                	sw	t4,104(sp)
     238:	d6fa                	sw	t5,108(sp)
     23a:	d8fe                	sw	t6,112(sp)
     23c:	300022f3          	csrr	t0,mstatus
     240:	da96                	sw	t0,116(sp)
     242:	20000297          	auipc	t0,0x20000
     246:	e162a283          	lw	t0,-490(t0) # 20000058 <pxCurrentTCB>
     24a:	0022a023          	sw	sp,0(t0)
     24e:	341025f3          	csrr	a1,mepc
     252:	c02e                	sw	a1,0(sp)
     254:	02000593          	li	a1,32
     258:	8045a073          	csrs	0x804,a1
     25c:	8101a103          	lw	sp,-2032(gp) # 20000020 <xISRStackTop>
     260:	165010ef          	jal	ra,1bc4 <vTaskSwitchContext>

00000264 <processed_source>:
     264:	20000317          	auipc	t1,0x20000
     268:	df432303          	lw	t1,-524(t1) # 20000058 <pxCurrentTCB>
     26c:	00032103          	lw	sp,0(t1)
     270:	4282                	lw	t0,0(sp)
     272:	34129073          	csrw	mepc,t0
     276:	52d6                	lw	t0,116(sp)
     278:	30029073          	csrw	mstatus,t0
     27c:	4092                	lw	ra,4(sp)
     27e:	42a2                	lw	t0,8(sp)
     280:	4332                	lw	t1,12(sp)
     282:	43c2                	lw	t2,16(sp)
     284:	4452                	lw	s0,20(sp)
     286:	44e2                	lw	s1,24(sp)
     288:	4572                	lw	a0,28(sp)
     28a:	5582                	lw	a1,32(sp)
     28c:	5612                	lw	a2,36(sp)
     28e:	56a2                	lw	a3,40(sp)
     290:	5732                	lw	a4,44(sp)
     292:	57c2                	lw	a5,48(sp)
     294:	5852                	lw	a6,52(sp)
     296:	58e2                	lw	a7,56(sp)
     298:	5972                	lw	s2,60(sp)
     29a:	4986                	lw	s3,64(sp)
     29c:	4a16                	lw	s4,68(sp)
     29e:	4aa6                	lw	s5,72(sp)
     2a0:	4b36                	lw	s6,76(sp)
     2a2:	4bc6                	lw	s7,80(sp)
     2a4:	4c56                	lw	s8,84(sp)
     2a6:	4ce6                	lw	s9,88(sp)
     2a8:	4d76                	lw	s10,92(sp)
     2aa:	5d86                	lw	s11,96(sp)
     2ac:	5e16                	lw	t3,100(sp)
     2ae:	5ea6                	lw	t4,104(sp)
     2b0:	5f36                	lw	t5,108(sp)
     2b2:	5fc6                	lw	t6,112(sp)
     2b4:	07810113          	addi	sp,sp,120
     2b8:	30200073          	mret
     2bc:	00000013          	nop
     2c0:	00000013          	nop
     2c4:	00000013          	nop
     2c8:	00000013          	nop
     2cc:	00000013          	nop
     2d0:	00000013          	nop
     2d4:	00000013          	nop
     2d8:	00000013          	nop
     2dc:	00000013          	nop
     2e0:	00000013          	nop
     2e4:	00000013          	nop
     2e8:	00000013          	nop
     2ec:	00000013          	nop
     2f0:	00000013          	nop
     2f4:	00000013          	nop
     2f8:	00000013          	nop
     2fc:	00000013          	nop

00000300 <xPortStartFirstTask>:
     300:	8101a283          	lw	t0,-2032(gp) # 20000020 <xISRStackTop>
     304:	e0028293          	addi	t0,t0,-512
     308:	34029073          	csrw	mscratch,t0
     30c:	20000117          	auipc	sp,0x20000
     310:	d4c12103          	lw	sp,-692(sp) # 20000058 <pxCurrentTCB>
     314:	4102                	lw	sp,0(sp)
     316:	4082                	lw	ra,0(sp)
     318:	4332                	lw	t1,12(sp)
     31a:	43c2                	lw	t2,16(sp)
     31c:	4452                	lw	s0,20(sp)
     31e:	44e2                	lw	s1,24(sp)
     320:	4572                	lw	a0,28(sp)
     322:	5582                	lw	a1,32(sp)
     324:	5612                	lw	a2,36(sp)
     326:	56a2                	lw	a3,40(sp)
     328:	5732                	lw	a4,44(sp)
     32a:	57c2                	lw	a5,48(sp)
     32c:	5852                	lw	a6,52(sp)
     32e:	58e2                	lw	a7,56(sp)
     330:	5972                	lw	s2,60(sp)
     332:	4986                	lw	s3,64(sp)
     334:	4a16                	lw	s4,68(sp)
     336:	4aa6                	lw	s5,72(sp)
     338:	4b36                	lw	s6,76(sp)
     33a:	4bc6                	lw	s7,80(sp)
     33c:	4c56                	lw	s8,84(sp)
     33e:	4ce6                	lw	s9,88(sp)
     340:	4d76                	lw	s10,92(sp)
     342:	5d86                	lw	s11,96(sp)
     344:	5e16                	lw	t3,100(sp)
     346:	5ea6                	lw	t4,104(sp)
     348:	5f36                	lw	t5,108(sp)
     34a:	5fc6                	lw	t6,112(sp)
     34c:	52d6                	lw	t0,116(sp)
     34e:	02a1                	addi	t0,t0,8
     350:	30029073          	csrw	mstatus,t0
     354:	42a2                	lw	t0,8(sp)
     356:	07810113          	addi	sp,sp,120
     35a:	8082                	ret
     35c:	00000013          	nop
     360:	00000013          	nop
     364:	00000013          	nop
     368:	00000013          	nop
     36c:	00000013          	nop
     370:	00000013          	nop
     374:	00000013          	nop
     378:	00000013          	nop
     37c:	00000013          	nop
     380:	00000013          	nop
     384:	00000013          	nop
     388:	00000013          	nop
     38c:	00000013          	nop
     390:	00000013          	nop
     394:	00000013          	nop
     398:	00000013          	nop
     39c:	00000013          	nop
     3a0:	00000013          	nop
     3a4:	00000013          	nop
     3a8:	00000013          	nop
     3ac:	00000013          	nop
     3b0:	00000013          	nop
     3b4:	00000013          	nop
     3b8:	00000013          	nop
     3bc:	00000013          	nop
     3c0:	00000013          	nop
     3c4:	00000013          	nop
     3c8:	00000013          	nop
     3cc:	00000013          	nop
     3d0:	00000013          	nop
     3d4:	00000013          	nop
     3d8:	00000013          	nop
     3dc:	00000013          	nop
     3e0:	00000013          	nop
     3e4:	00000013          	nop
     3e8:	00000013          	nop
     3ec:	00000013          	nop
     3f0:	00000013          	nop
     3f4:	00000013          	nop
     3f8:	00000013          	nop
     3fc:	00000013          	nop

00000400 <pxPortInitialiseStack>:
     400:	300022f3          	csrr	t0,mstatus
     404:	ff72f293          	andi	t0,t0,-9
     408:	78800313          	li	t1,1928
     40c:	0312                	slli	t1,t1,0x4
     40e:	0062e2b3          	or	t0,t0,t1
     412:	1571                	addi	a0,a0,-4
     414:	00552023          	sw	t0,0(a0)
     418:	fa850513          	addi	a0,a0,-88
     41c:	c110                	sw	a2,0(a0)
     41e:	1521                	addi	a0,a0,-24
     420:	00052023          	sw	zero,0(a0)
     424:	00000293          	li	t0,0

00000428 <chip_specific_stack_frame>:
     428:	00028763          	beqz	t0,436 <chip_specific_stack_frame+0xe>
     42c:	1571                	addi	a0,a0,-4
     42e:	00052023          	sw	zero,0(a0)
     432:	12fd                	addi	t0,t0,-1
     434:	bfd5                	j	428 <chip_specific_stack_frame>
     436:	1571                	addi	a0,a0,-4
     438:	c10c                	sw	a1,0(a0)
     43a:	8082                	ret
	...

000004e6 <__riscv_save_12>:
     4e6:	7139                	addi	sp,sp,-64
     4e8:	4301                	li	t1,0
     4ea:	c66e                	sw	s11,12(sp)
     4ec:	a019                	j	4f2 <__riscv_save_10+0x4>

000004ee <__riscv_save_10>:
     4ee:	7139                	addi	sp,sp,-64
     4f0:	5341                	li	t1,-16
     4f2:	c86a                	sw	s10,16(sp)
     4f4:	ca66                	sw	s9,20(sp)
     4f6:	cc62                	sw	s8,24(sp)
     4f8:	ce5e                	sw	s7,28(sp)
     4fa:	a019                	j	500 <__riscv_save_4+0x4>

000004fc <__riscv_save_4>:
     4fc:	7139                	addi	sp,sp,-64
     4fe:	5301                	li	t1,-32
     500:	d05a                	sw	s6,32(sp)
     502:	d256                	sw	s5,36(sp)
     504:	d452                	sw	s4,40(sp)
     506:	d64e                	sw	s3,44(sp)
     508:	d84a                	sw	s2,48(sp)
     50a:	da26                	sw	s1,52(sp)
     50c:	dc22                	sw	s0,56(sp)
     50e:	de06                	sw	ra,60(sp)
     510:	40610133          	sub	sp,sp,t1
     514:	8282                	jr	t0

00000516 <__riscv_save_0>:
     516:	1141                	addi	sp,sp,-16
     518:	c04a                	sw	s2,0(sp)
     51a:	c226                	sw	s1,4(sp)
     51c:	c422                	sw	s0,8(sp)
     51e:	c606                	sw	ra,12(sp)
     520:	8282                	jr	t0

00000522 <__riscv_restore_12>:
     522:	4db2                	lw	s11,12(sp)
     524:	0141                	addi	sp,sp,16

00000526 <__riscv_restore_10>:
     526:	4d02                	lw	s10,0(sp)
     528:	4c92                	lw	s9,4(sp)
     52a:	4c22                	lw	s8,8(sp)
     52c:	4bb2                	lw	s7,12(sp)
     52e:	0141                	addi	sp,sp,16

00000530 <__riscv_restore_4>:
     530:	4b02                	lw	s6,0(sp)
     532:	4a92                	lw	s5,4(sp)
     534:	4a22                	lw	s4,8(sp)
     536:	49b2                	lw	s3,12(sp)
     538:	0141                	addi	sp,sp,16

0000053a <__riscv_restore_0>:
     53a:	4902                	lw	s2,0(sp)
     53c:	4492                	lw	s1,4(sp)
     53e:	4422                	lw	s0,8(sp)
     540:	40b2                	lw	ra,12(sp)
     542:	0141                	addi	sp,sp,16
     544:	8082                	ret

00000546 <NMI_Handler>:
     546:	30200073          	mret

0000054a <HardFault_Handler>:
     54a:	a001                	j	54a <HardFault_Handler>

0000054c <task1_task>:
     54c:	fa3ff2ef          	jal	t0,4ee <__riscv_save_10>
     550:	20000437          	lui	s0,0x20000
     554:	200004b7          	lui	s1,0x20000
     558:	0ff00993          	li	s3,255
     55c:	20000937          	lui	s2,0x20000
     560:	20000a37          	lui	s4,0x20000
     564:	00003ab7          	lui	s5,0x3
     568:	4585                	li	a1,1
     56a:	40011537          	lui	a0,0x40011
     56e:	29a5                	jal	9e6 <GPIO_ReadInputDataBit>
     570:	03140713          	addi	a4,s0,49 # 20000031 <key_filt_val>
     574:	231c                	lbu	a5,0(a4)
     576:	0324c603          	lbu	a2,50(s1) # 20000032 <last_filt_key_state>
     57a:	00153b13          	seqz	s6,a0
     57e:	078a                	slli	a5,a5,0x2
     580:	0ff7f793          	andi	a5,a5,255
     584:	a31c                	sb	a5,0(a4)
     586:	03248693          	addi	a3,s1,50
     58a:	01661563          	bne	a2,s6,594 <task1_task+0x48>
     58e:	0037e793          	ori	a5,a5,3
     592:	a31c                	sb	a5,0(a4)
     594:	231c                	lbu	a5,0(a4)
     596:	01668023          	sb	s6,0(a3)
     59a:	03379763          	bne	a5,s3,5c8 <task1_task+0x7c>
     59e:	03394783          	lbu	a5,51(s2) # 20000033 <old_key_state>
     5a2:	03390b93          	addi	s7,s2,51
     5a6:	8d5d                	or	a0,a0,a5
     5a8:	0ff57513          	andi	a0,a0,255
     5ac:	ed01                	bnez	a0,5c4 <task1_task+0x78>
     5ae:	030a0793          	addi	a5,s4,48 # 20000030 <aaa>
     5b2:	238c                	lbu	a1,0(a5)
     5b4:	9a8a8513          	addi	a0,s5,-1624 # 29a8 <memcpy+0x112>
     5b8:	0585                	addi	a1,a1,1
     5ba:	0ff5f593          	andi	a1,a1,255
     5be:	a38c                	sb	a1,0(a5)
     5c0:	268020ef          	jal	ra,2828 <printf>
     5c4:	016b8023          	sb	s6,0(s7)
     5c8:	4529                	li	a0,10
     5ca:	598010ef          	jal	ra,1b62 <vTaskDelay>
     5ce:	bf69                	j	568 <task1_task+0x1c>

000005d0 <task2_task>:
     5d0:	f47ff2ef          	jal	t0,516 <__riscv_save_0>
     5d4:	4591                	li	a1,4
     5d6:	40011537          	lui	a0,0x40011
     5da:	2929                	jal	9f4 <GPIO_ResetBits>
     5dc:	1f400513          	li	a0,500
     5e0:	582010ef          	jal	ra,1b62 <vTaskDelay>
     5e4:	4591                	li	a1,4
     5e6:	40011537          	lui	a0,0x40011
     5ea:	2119                	jal	9f0 <GPIO_SetBits>
     5ec:	1f400513          	li	a0,500
     5f0:	572010ef          	jal	ra,1b62 <vTaskDelay>
     5f4:	b7c5                	j	5d4 <task2_task+0x4>

000005f6 <GPIO_Toggle_INIT>:
     5f6:	f21ff2ef          	jal	t0,516 <__riscv_save_0>
     5fa:	1141                	addi	sp,sp,-16
     5fc:	4585                	li	a1,1
     5fe:	4541                	li	a0,16
     600:	c202                	sw	zero,4(sp)
     602:	c402                	sw	zero,8(sp)
     604:	c602                	sw	zero,12(sp)
     606:	2b8d                	jal	b78 <RCC_APB2PeriphClockCmd>
     608:	440d                	li	s0,3
     60a:	4785                	li	a5,1
     60c:	4911                	li	s2,4
     60e:	004c                	addi	a1,sp,4
     610:	40011537          	lui	a0,0x40011
     614:	827c                	sh	a5,4(sp)
     616:	c64a                	sw	s2,12(sp)
     618:	c422                	sw	s0,8(sp)
     61a:	2631                	jal	926 <GPIO_Init>
     61c:	4789                	li	a5,2
     61e:	44c1                	li	s1,16
     620:	004c                	addi	a1,sp,4
     622:	40011537          	lui	a0,0x40011
     626:	827c                	sh	a5,4(sp)
     628:	c626                	sw	s1,12(sp)
     62a:	c422                	sw	s0,8(sp)
     62c:	2ced                	jal	926 <GPIO_Init>
     62e:	004c                	addi	a1,sp,4
     630:	40011537          	lui	a0,0x40011
     634:	01211223          	sh	s2,4(sp)
     638:	c626                	sw	s1,12(sp)
     63a:	c422                	sw	s0,8(sp)
     63c:	24ed                	jal	926 <GPIO_Init>
     63e:	0141                	addi	sp,sp,16
     640:	bded                	j	53a <__riscv_restore_0>

00000642 <main>:
     642:	ed5ff2ef          	jal	t0,516 <__riscv_save_0>
     646:	4509                	li	a0,2
     648:	2e45                	jal	9f8 <NVIC_PriorityGroupConfig>
     64a:	3f1010ef          	jal	ra,223a <Delay_Init>
     64e:	6571                	lui	a0,0x1c
     650:	20050513          	addi	a0,a0,512 # 1c200 <_data_lma+0x19748>
     654:	419010ef          	jal	ra,226c <USART_Printf_Init>
     658:	200007b7          	lui	a5,0x20000
     65c:	0107a583          	lw	a1,16(a5) # 20000010 <SystemCoreClock>
     660:	00003537          	lui	a0,0x3
     664:	94850513          	addi	a0,a0,-1720 # 2948 <memcpy+0xb2>
     668:	1c0020ef          	jal	ra,2828 <printf>
     66c:	000035b7          	lui	a1,0x3
     670:	00003537          	lui	a0,0x3
     674:	95858593          	addi	a1,a1,-1704 # 2958 <memcpy+0xc2>
     678:	96050513          	addi	a0,a0,-1696 # 2960 <memcpy+0xca>
     67c:	1ac020ef          	jal	ra,2828 <printf>
     680:	3f9d                	jal	5f6 <GPIO_Toggle_INIT>
     682:	200007b7          	lui	a5,0x20000
     686:	000035b7          	lui	a1,0x3
     68a:	00000537          	lui	a0,0x0
     68e:	02c78793          	addi	a5,a5,44 # 2000002c <Task2Task_Handler>
     692:	4715                	li	a4,5
     694:	4681                	li	a3,0
     696:	10000613          	li	a2,256
     69a:	98058593          	addi	a1,a1,-1664 # 2980 <memcpy+0xea>
     69e:	5d050513          	addi	a0,a0,1488 # 5d0 <task2_task>
     6a2:	703000ef          	jal	ra,15a4 <xTaskCreate>
     6a6:	200007b7          	lui	a5,0x20000
     6aa:	000035b7          	lui	a1,0x3
     6ae:	00000537          	lui	a0,0x0
     6b2:	02878793          	addi	a5,a5,40 # 20000028 <_edata>
     6b6:	4715                	li	a4,5
     6b8:	4681                	li	a3,0
     6ba:	10000613          	li	a2,256
     6be:	98858593          	addi	a1,a1,-1656 # 2988 <memcpy+0xf2>
     6c2:	54c50513          	addi	a0,a0,1356 # 54c <task1_task>
     6c6:	6df000ef          	jal	ra,15a4 <xTaskCreate>
     6ca:	0de010ef          	jal	ra,17a8 <vTaskStartScheduler>
     6ce:	00003437          	lui	s0,0x3
     6d2:	99040513          	addi	a0,s0,-1648 # 2990 <memcpy+0xfa>
     6d6:	176020ef          	jal	ra,284c <puts>
     6da:	bfe5                	j	6d2 <main+0x90>

000006dc <SystemInit>:
     6dc:	400217b7          	lui	a5,0x40021
     6e0:	4398                	lw	a4,0(a5)
     6e2:	f8ff06b7          	lui	a3,0xf8ff0
     6e6:	1141                	addi	sp,sp,-16
     6e8:	00176713          	ori	a4,a4,1
     6ec:	c398                	sw	a4,0(a5)
     6ee:	43d8                	lw	a4,4(a5)
     6f0:	00020637          	lui	a2,0x20
     6f4:	8f75                	and	a4,a4,a3
     6f6:	c3d8                	sw	a4,4(a5)
     6f8:	4398                	lw	a4,0(a5)
     6fa:	fef706b7          	lui	a3,0xfef70
     6fe:	16fd                	addi	a3,a3,-1
     700:	8f75                	and	a4,a4,a3
     702:	c398                	sw	a4,0(a5)
     704:	4398                	lw	a4,0(a5)
     706:	fffc06b7          	lui	a3,0xfffc0
     70a:	16fd                	addi	a3,a3,-1
     70c:	8f75                	and	a4,a4,a3
     70e:	c398                	sw	a4,0(a5)
     710:	43d8                	lw	a4,4(a5)
     712:	ff8106b7          	lui	a3,0xff810
     716:	16fd                	addi	a3,a3,-1
     718:	8f75                	and	a4,a4,a3
     71a:	c3d8                	sw	a4,4(a5)
     71c:	4398                	lw	a4,0(a5)
     71e:	ec0006b7          	lui	a3,0xec000
     722:	16fd                	addi	a3,a3,-1
     724:	8f75                	and	a4,a4,a3
     726:	c398                	sw	a4,0(a5)
     728:	00ff0737          	lui	a4,0xff0
     72c:	c798                	sw	a4,8(a5)
     72e:	0207a623          	sw	zero,44(a5) # 4002102c <__freertos_irq_stack_top+0x2001902c>
     732:	c402                	sw	zero,8(sp)
     734:	c602                	sw	zero,12(sp)
     736:	4398                	lw	a4,0(a5)
     738:	66c1                	lui	a3,0x10
     73a:	8f55                	or	a4,a4,a3
     73c:	c398                	sw	a4,0(a5)
     73e:	400216b7          	lui	a3,0x40021
     742:	6705                	lui	a4,0x1
     744:	429c                	lw	a5,0(a3)
     746:	8ff1                	and	a5,a5,a2
     748:	c63e                	sw	a5,12(sp)
     74a:	47a2                	lw	a5,8(sp)
     74c:	0785                	addi	a5,a5,1
     74e:	c43e                	sw	a5,8(sp)
     750:	47b2                	lw	a5,12(sp)
     752:	e781                	bnez	a5,75a <SystemInit+0x7e>
     754:	47a2                	lw	a5,8(sp)
     756:	fee797e3          	bne	a5,a4,744 <SystemInit+0x68>
     75a:	400217b7          	lui	a5,0x40021
     75e:	439c                	lw	a5,0(a5)
     760:	00e79713          	slli	a4,a5,0xe
     764:	06075763          	bgez	a4,7d2 <SystemInit+0xf6>
     768:	4785                	li	a5,1
     76a:	c63e                	sw	a5,12(sp)
     76c:	4732                	lw	a4,12(sp)
     76e:	4785                	li	a5,1
     770:	04f71f63          	bne	a4,a5,7ce <SystemInit+0xf2>
     774:	400217b7          	lui	a5,0x40021
     778:	43d8                	lw	a4,4(a5)
     77a:	ffc106b7          	lui	a3,0xffc10
     77e:	16fd                	addi	a3,a3,-1
     780:	c3d8                	sw	a4,4(a5)
     782:	43d8                	lw	a4,4(a5)
     784:	c3d8                	sw	a4,4(a5)
     786:	43d8                	lw	a4,4(a5)
     788:	40076713          	ori	a4,a4,1024
     78c:	c3d8                	sw	a4,4(a5)
     78e:	43d8                	lw	a4,4(a5)
     790:	8f75                	and	a4,a4,a3
     792:	c3d8                	sw	a4,4(a5)
     794:	43d8                	lw	a4,4(a5)
     796:	002906b7          	lui	a3,0x290
     79a:	8f55                	or	a4,a4,a3
     79c:	c3d8                	sw	a4,4(a5)
     79e:	4398                	lw	a4,0(a5)
     7a0:	010006b7          	lui	a3,0x1000
     7a4:	8f55                	or	a4,a4,a3
     7a6:	c398                	sw	a4,0(a5)
     7a8:	4398                	lw	a4,0(a5)
     7aa:	00671693          	slli	a3,a4,0x6
     7ae:	fe06dde3          	bgez	a3,7a8 <SystemInit+0xcc>
     7b2:	43d8                	lw	a4,4(a5)
     7b4:	400216b7          	lui	a3,0x40021
     7b8:	9b71                	andi	a4,a4,-4
     7ba:	c3d8                	sw	a4,4(a5)
     7bc:	43d8                	lw	a4,4(a5)
     7be:	00276713          	ori	a4,a4,2
     7c2:	c3d8                	sw	a4,4(a5)
     7c4:	4721                	li	a4,8
     7c6:	42dc                	lw	a5,4(a3)
     7c8:	8bb1                	andi	a5,a5,12
     7ca:	fee79ee3          	bne	a5,a4,7c6 <SystemInit+0xea>
     7ce:	0141                	addi	sp,sp,16
     7d0:	8082                	ret
     7d2:	c602                	sw	zero,12(sp)
     7d4:	bf61                	j	76c <SystemInit+0x90>
     7d6:	a001                	j	7d6 <SystemInit+0xfa>
     7d8:	a001                	j	7d8 <SystemInit+0xfc>

000007da <Ecall_M_Mode_Handler>:
     7da:	a001                	j	7da <Ecall_M_Mode_Handler>

000007dc <Ecall_U_Mode_Handler>:
     7dc:	a001                	j	7dc <Ecall_U_Mode_Handler>

000007de <Break_Point_Handler>:
     7de:	a001                	j	7de <Break_Point_Handler>
     7e0:	a001                	j	7e0 <Break_Point_Handler+0x2>
     7e2:	a001                	j	7e2 <Break_Point_Handler+0x4>

000007e4 <WWDG_IRQHandler>:
     7e4:	a001                	j	7e4 <WWDG_IRQHandler>

000007e6 <PVD_IRQHandler>:
     7e6:	a001                	j	7e6 <PVD_IRQHandler>

000007e8 <TAMPER_IRQHandler>:
     7e8:	a001                	j	7e8 <TAMPER_IRQHandler>

000007ea <RTC_IRQHandler>:
     7ea:	a001                	j	7ea <RTC_IRQHandler>

000007ec <FLASH_IRQHandler>:
     7ec:	a001                	j	7ec <FLASH_IRQHandler>

000007ee <RCC_IRQHandler>:
     7ee:	a001                	j	7ee <RCC_IRQHandler>

000007f0 <EXTI0_IRQHandler>:
     7f0:	a001                	j	7f0 <EXTI0_IRQHandler>

000007f2 <EXTI1_IRQHandler>:
     7f2:	a001                	j	7f2 <EXTI1_IRQHandler>

000007f4 <EXTI2_IRQHandler>:
     7f4:	a001                	j	7f4 <EXTI2_IRQHandler>

000007f6 <EXTI3_IRQHandler>:
     7f6:	a001                	j	7f6 <EXTI3_IRQHandler>

000007f8 <EXTI4_IRQHandler>:
     7f8:	a001                	j	7f8 <EXTI4_IRQHandler>

000007fa <DMA1_Channel1_IRQHandler>:
     7fa:	a001                	j	7fa <DMA1_Channel1_IRQHandler>

000007fc <DMA1_Channel2_IRQHandler>:
     7fc:	a001                	j	7fc <DMA1_Channel2_IRQHandler>

000007fe <DMA1_Channel3_IRQHandler>:
     7fe:	a001                	j	7fe <DMA1_Channel3_IRQHandler>

00000800 <DMA1_Channel4_IRQHandler>:
     800:	a001                	j	800 <DMA1_Channel4_IRQHandler>

00000802 <DMA1_Channel5_IRQHandler>:
     802:	a001                	j	802 <DMA1_Channel5_IRQHandler>

00000804 <DMA1_Channel6_IRQHandler>:
     804:	a001                	j	804 <DMA1_Channel6_IRQHandler>

00000806 <DMA1_Channel7_IRQHandler>:
     806:	a001                	j	806 <DMA1_Channel7_IRQHandler>

00000808 <ADC1_2_IRQHandler>:
     808:	a001                	j	808 <ADC1_2_IRQHandler>

0000080a <USB_HP_CAN1_TX_IRQHandler>:
     80a:	a001                	j	80a <USB_HP_CAN1_TX_IRQHandler>

0000080c <USB_LP_CAN1_RX0_IRQHandler>:
     80c:	a001                	j	80c <USB_LP_CAN1_RX0_IRQHandler>

0000080e <CAN1_RX1_IRQHandler>:
     80e:	a001                	j	80e <CAN1_RX1_IRQHandler>

00000810 <CAN1_SCE_IRQHandler>:
     810:	a001                	j	810 <CAN1_SCE_IRQHandler>

00000812 <EXTI9_5_IRQHandler>:
     812:	a001                	j	812 <EXTI9_5_IRQHandler>

00000814 <TIM1_BRK_IRQHandler>:
     814:	a001                	j	814 <TIM1_BRK_IRQHandler>

00000816 <TIM1_UP_IRQHandler>:
     816:	a001                	j	816 <TIM1_UP_IRQHandler>

00000818 <TIM1_TRG_COM_IRQHandler>:
     818:	a001                	j	818 <TIM1_TRG_COM_IRQHandler>

0000081a <TIM1_CC_IRQHandler>:
     81a:	a001                	j	81a <TIM1_CC_IRQHandler>

0000081c <TIM2_IRQHandler>:
     81c:	a001                	j	81c <TIM2_IRQHandler>

0000081e <TIM3_IRQHandler>:
     81e:	a001                	j	81e <TIM3_IRQHandler>

00000820 <TIM4_IRQHandler>:
     820:	a001                	j	820 <TIM4_IRQHandler>

00000822 <I2C1_EV_IRQHandler>:
     822:	a001                	j	822 <I2C1_EV_IRQHandler>

00000824 <I2C1_ER_IRQHandler>:
     824:	a001                	j	824 <I2C1_ER_IRQHandler>

00000826 <I2C2_EV_IRQHandler>:
     826:	a001                	j	826 <I2C2_EV_IRQHandler>

00000828 <I2C2_ER_IRQHandler>:
     828:	a001                	j	828 <I2C2_ER_IRQHandler>

0000082a <SPI1_IRQHandler>:
     82a:	a001                	j	82a <SPI1_IRQHandler>

0000082c <SPI2_IRQHandler>:
     82c:	a001                	j	82c <SPI2_IRQHandler>

0000082e <USART1_IRQHandler>:
     82e:	a001                	j	82e <USART1_IRQHandler>

00000830 <USART2_IRQHandler>:
     830:	a001                	j	830 <USART2_IRQHandler>

00000832 <USART3_IRQHandler>:
     832:	a001                	j	832 <USART3_IRQHandler>

00000834 <EXTI15_10_IRQHandler>:
     834:	a001                	j	834 <EXTI15_10_IRQHandler>

00000836 <RTCAlarm_IRQHandler>:
     836:	a001                	j	836 <RTCAlarm_IRQHandler>

00000838 <USBWakeUp_IRQHandler>:
     838:	a001                	j	838 <USBWakeUp_IRQHandler>

0000083a <TIM8_BRK_IRQHandler>:
     83a:	a001                	j	83a <TIM8_BRK_IRQHandler>

0000083c <TIM8_UP_IRQHandler>:
     83c:	a001                	j	83c <TIM8_UP_IRQHandler>

0000083e <TIM8_TRG_COM_IRQHandler>:
     83e:	a001                	j	83e <TIM8_TRG_COM_IRQHandler>

00000840 <TIM8_CC_IRQHandler>:
     840:	a001                	j	840 <TIM8_CC_IRQHandler>

00000842 <RNG_IRQHandler>:
     842:	a001                	j	842 <RNG_IRQHandler>

00000844 <FSMC_IRQHandler>:
     844:	a001                	j	844 <FSMC_IRQHandler>

00000846 <SDIO_IRQHandler>:
     846:	a001                	j	846 <SDIO_IRQHandler>

00000848 <TIM5_IRQHandler>:
     848:	a001                	j	848 <TIM5_IRQHandler>

0000084a <SPI3_IRQHandler>:
     84a:	a001                	j	84a <SPI3_IRQHandler>

0000084c <UART4_IRQHandler>:
     84c:	a001                	j	84c <UART4_IRQHandler>

0000084e <UART5_IRQHandler>:
     84e:	a001                	j	84e <UART5_IRQHandler>

00000850 <TIM6_IRQHandler>:
     850:	a001                	j	850 <TIM6_IRQHandler>

00000852 <TIM7_IRQHandler>:
     852:	a001                	j	852 <TIM7_IRQHandler>

00000854 <DMA2_Channel1_IRQHandler>:
     854:	a001                	j	854 <DMA2_Channel1_IRQHandler>

00000856 <DMA2_Channel2_IRQHandler>:
     856:	a001                	j	856 <DMA2_Channel2_IRQHandler>

00000858 <DMA2_Channel3_IRQHandler>:
     858:	a001                	j	858 <DMA2_Channel3_IRQHandler>

0000085a <DMA2_Channel4_IRQHandler>:
     85a:	a001                	j	85a <DMA2_Channel4_IRQHandler>

0000085c <DMA2_Channel5_IRQHandler>:
     85c:	a001                	j	85c <DMA2_Channel5_IRQHandler>

0000085e <ETH_IRQHandler>:
     85e:	a001                	j	85e <ETH_IRQHandler>

00000860 <ETH_WKUP_IRQHandler>:
     860:	a001                	j	860 <ETH_WKUP_IRQHandler>

00000862 <CAN2_TX_IRQHandler>:
     862:	a001                	j	862 <CAN2_TX_IRQHandler>

00000864 <CAN2_RX0_IRQHandler>:
     864:	a001                	j	864 <CAN2_RX0_IRQHandler>

00000866 <CAN2_RX1_IRQHandler>:
     866:	a001                	j	866 <CAN2_RX1_IRQHandler>

00000868 <CAN2_SCE_IRQHandler>:
     868:	a001                	j	868 <CAN2_SCE_IRQHandler>

0000086a <OTG_FS_IRQHandler>:
     86a:	a001                	j	86a <OTG_FS_IRQHandler>

0000086c <USBHSWakeup_IRQHandler>:
     86c:	a001                	j	86c <USBHSWakeup_IRQHandler>

0000086e <USBHS_IRQHandler>:
     86e:	a001                	j	86e <USBHS_IRQHandler>

00000870 <DVP_IRQHandler>:
     870:	a001                	j	870 <DVP_IRQHandler>

00000872 <UART6_IRQHandler>:
     872:	a001                	j	872 <UART6_IRQHandler>

00000874 <UART7_IRQHandler>:
     874:	a001                	j	874 <UART7_IRQHandler>

00000876 <UART8_IRQHandler>:
     876:	a001                	j	876 <UART8_IRQHandler>

00000878 <TIM9_BRK_IRQHandler>:
     878:	a001                	j	878 <TIM9_BRK_IRQHandler>

0000087a <TIM9_UP_IRQHandler>:
     87a:	a001                	j	87a <TIM9_UP_IRQHandler>

0000087c <TIM9_TRG_COM_IRQHandler>:
     87c:	a001                	j	87c <TIM9_TRG_COM_IRQHandler>

0000087e <TIM9_CC_IRQHandler>:
     87e:	a001                	j	87e <TIM9_CC_IRQHandler>

00000880 <TIM10_BRK_IRQHandler>:
     880:	a001                	j	880 <TIM10_BRK_IRQHandler>

00000882 <TIM10_UP_IRQHandler>:
     882:	a001                	j	882 <TIM10_UP_IRQHandler>

00000884 <TIM10_TRG_COM_IRQHandler>:
     884:	a001                	j	884 <TIM10_TRG_COM_IRQHandler>

00000886 <TIM10_CC_IRQHandler>:
     886:	a001                	j	886 <TIM10_CC_IRQHandler>

00000888 <DMA2_Channel6_IRQHandler>:
     888:	a001                	j	888 <DMA2_Channel6_IRQHandler>

0000088a <DMA2_Channel7_IRQHandler>:
     88a:	a001                	j	88a <DMA2_Channel7_IRQHandler>

0000088c <DMA2_Channel8_IRQHandler>:
     88c:	a001                	j	88c <DMA2_Channel8_IRQHandler>

0000088e <DMA2_Channel9_IRQHandler>:
     88e:	a001                	j	88e <DMA2_Channel9_IRQHandler>

00000890 <DMA2_Channel10_IRQHandler>:
     890:	a001                	j	890 <DMA2_Channel10_IRQHandler>

00000892 <DMA2_Channel11_IRQHandler>:
     892:	a001                	j	892 <DMA2_Channel11_IRQHandler>

00000894 <handle_reset>:
     894:	20000197          	auipc	gp,0x20000
     898:	f7c18193          	addi	gp,gp,-132 # 20000810 <__global_pointer$>
     89c:	20007117          	auipc	sp,0x20007
     8a0:	76410113          	addi	sp,sp,1892 # 20008000 <__freertos_irq_stack_top>
     8a4:	00002517          	auipc	a0,0x2
     8a8:	21450513          	addi	a0,a0,532 # 2ab8 <_data_lma>
     8ac:	1ffff597          	auipc	a1,0x1ffff
     8b0:	75458593          	addi	a1,a1,1876 # 20000000 <_data_vma>
     8b4:	81818613          	addi	a2,gp,-2024 # 20000028 <_edata>
     8b8:	00c5fa63          	bgeu	a1,a2,8cc <handle_reset+0x38>
     8bc:	00052283          	lw	t0,0(a0)
     8c0:	0055a023          	sw	t0,0(a1)
     8c4:	0511                	addi	a0,a0,4
     8c6:	0591                	addi	a1,a1,4
     8c8:	fec5eae3          	bltu	a1,a2,8bc <handle_reset+0x28>
     8cc:	1ffff517          	auipc	a0,0x1ffff
     8d0:	75c50513          	addi	a0,a0,1884 # 20000028 <_edata>
     8d4:	20003597          	auipc	a1,0x20003
     8d8:	9d058593          	addi	a1,a1,-1584 # 200032a4 <_ebss>
     8dc:	00b57763          	bgeu	a0,a1,8ea <handle_reset+0x56>
     8e0:	00052023          	sw	zero,0(a0)
     8e4:	0511                	addi	a0,a0,4
     8e6:	feb56de3          	bltu	a0,a1,8e0 <handle_reset+0x4c>
     8ea:	42fd                	li	t0,31
     8ec:	bc029073          	csrw	0xbc0,t0
     8f0:	42fd                	li	t0,31
     8f2:	80429073          	csrw	0x804,t0
     8f6:	000082b7          	lui	t0,0x8
     8fa:	80028293          	addi	t0,t0,-2048 # 7800 <_data_lma+0x4d48>
     8fe:	3002a073          	csrs	mstatus,t0
     902:	fffff297          	auipc	t0,0xfffff
     906:	73628293          	addi	t0,t0,1846 # 38 <_einit>
     90a:	0032e293          	ori	t0,t0,3
     90e:	30529073          	csrw	mtvec,t0
     912:	dcbff0ef          	jal	ra,6dc <SystemInit>
     916:	00000297          	auipc	t0,0x0
     91a:	d2c28293          	addi	t0,t0,-724 # 642 <main>
     91e:	34129073          	csrw	mepc,t0
     922:	30200073          	mret

00000926 <GPIO_Init>:
     926:	459c                	lw	a5,8(a1)
     928:	0107f713          	andi	a4,a5,16
     92c:	00f7f813          	andi	a6,a5,15
     930:	c701                	beqz	a4,938 <GPIO_Init+0x12>
     932:	41d8                	lw	a4,4(a1)
     934:	00e86833          	or	a6,a6,a4
     938:	218e                	lhu	a1,0(a1)
     93a:	0ff5f713          	andi	a4,a1,255
     93e:	c339                	beqz	a4,984 <GPIO_Init+0x5e>
     940:	4118                	lw	a4,0(a0)
     942:	4681                	li	a3,0
     944:	4e85                	li	t4,1
     946:	4f3d                	li	t5,15
     948:	02800f93          	li	t6,40
     94c:	04800293          	li	t0,72
     950:	4e21                	li	t3,8
     952:	00de9633          	sll	a2,t4,a3
     956:	00c5f8b3          	and	a7,a1,a2
     95a:	03161163          	bne	a2,a7,97c <GPIO_Init+0x56>
     95e:	00269893          	slli	a7,a3,0x2
     962:	011f1333          	sll	t1,t5,a7
     966:	fff34313          	not	t1,t1
     96a:	00e37733          	and	a4,t1,a4
     96e:	011818b3          	sll	a7,a6,a7
     972:	00e8e733          	or	a4,a7,a4
     976:	05f79f63          	bne	a5,t6,9d4 <GPIO_Init+0xae>
     97a:	c950                	sw	a2,20(a0)
     97c:	0685                	addi	a3,a3,1
     97e:	fdc69ae3          	bne	a3,t3,952 <GPIO_Init+0x2c>
     982:	c118                	sw	a4,0(a0)
     984:	0ff00713          	li	a4,255
     988:	04b77563          	bgeu	a4,a1,9d2 <GPIO_Init+0xac>
     98c:	4154                	lw	a3,4(a0)
     98e:	4621                	li	a2,8
     990:	4e85                	li	t4,1
     992:	4f3d                	li	t5,15
     994:	02800f93          	li	t6,40
     998:	04800293          	li	t0,72
     99c:	4e41                	li	t3,16
     99e:	00ce98b3          	sll	a7,t4,a2
     9a2:	0115f733          	and	a4,a1,a7
     9a6:	02e89263          	bne	a7,a4,9ca <GPIO_Init+0xa4>
     9aa:	00261713          	slli	a4,a2,0x2
     9ae:	1701                	addi	a4,a4,-32
     9b0:	00ef1333          	sll	t1,t5,a4
     9b4:	fff34313          	not	t1,t1
     9b8:	00d376b3          	and	a3,t1,a3
     9bc:	00e81733          	sll	a4,a6,a4
     9c0:	8ed9                	or	a3,a3,a4
     9c2:	01f79d63          	bne	a5,t6,9dc <GPIO_Init+0xb6>
     9c6:	01152a23          	sw	a7,20(a0)
     9ca:	0605                	addi	a2,a2,1
     9cc:	fdc619e3          	bne	a2,t3,99e <GPIO_Init+0x78>
     9d0:	c154                	sw	a3,4(a0)
     9d2:	8082                	ret
     9d4:	fa5794e3          	bne	a5,t0,97c <GPIO_Init+0x56>
     9d8:	c910                	sw	a2,16(a0)
     9da:	b74d                	j	97c <GPIO_Init+0x56>
     9dc:	fe5797e3          	bne	a5,t0,9ca <GPIO_Init+0xa4>
     9e0:	01152823          	sw	a7,16(a0)
     9e4:	b7dd                	j	9ca <GPIO_Init+0xa4>

000009e6 <GPIO_ReadInputDataBit>:
     9e6:	4508                	lw	a0,8(a0)
     9e8:	8d6d                	and	a0,a0,a1
     9ea:	00a03533          	snez	a0,a0
     9ee:	8082                	ret

000009f0 <GPIO_SetBits>:
     9f0:	c90c                	sw	a1,16(a0)
     9f2:	8082                	ret

000009f4 <GPIO_ResetBits>:
     9f4:	c94c                	sw	a1,20(a0)
     9f6:	8082                	ret

000009f8 <NVIC_PriorityGroupConfig>:
     9f8:	200007b7          	lui	a5,0x20000
     9fc:	02a7aa23          	sw	a0,52(a5) # 20000034 <NVIC_Priority_Group>
     a00:	8082                	ret

00000a02 <RCC_GetClocksFreq>:
     a02:	40021737          	lui	a4,0x40021
     a06:	435c                	lw	a5,4(a4)
     a08:	4691                	li	a3,4
     a0a:	8bb1                	andi	a5,a5,12
     a0c:	00d78563          	beq	a5,a3,a16 <RCC_GetClocksFreq+0x14>
     a10:	46a1                	li	a3,8
     a12:	06d78263          	beq	a5,a3,a76 <RCC_GetClocksFreq+0x74>
     a16:	007a17b7          	lui	a5,0x7a1
     a1a:	20078793          	addi	a5,a5,512 # 7a1200 <_data_lma+0x79e748>
     a1e:	c11c                	sw	a5,0(a0)
     a20:	40021637          	lui	a2,0x40021
     a24:	425c                	lw	a5,4(a2)
     a26:	20000737          	lui	a4,0x20000
     a2a:	00070713          	mv	a4,a4
     a2e:	8391                	srli	a5,a5,0x4
     a30:	8bbd                	andi	a5,a5,15
     a32:	97ba                	add	a5,a5,a4
     a34:	2394                	lbu	a3,0(a5)
     a36:	411c                	lw	a5,0(a0)
     a38:	00d7d7b3          	srl	a5,a5,a3
     a3c:	c15c                	sw	a5,4(a0)
     a3e:	4254                	lw	a3,4(a2)
     a40:	82a1                	srli	a3,a3,0x8
     a42:	8a9d                	andi	a3,a3,7
     a44:	96ba                	add	a3,a3,a4
     a46:	2294                	lbu	a3,0(a3)
     a48:	00d7d6b3          	srl	a3,a5,a3
     a4c:	c514                	sw	a3,8(a0)
     a4e:	4254                	lw	a3,4(a2)
     a50:	82ad                	srli	a3,a3,0xb
     a52:	8a9d                	andi	a3,a3,7
     a54:	9736                	add	a4,a4,a3
     a56:	2318                	lbu	a4,0(a4)
     a58:	00e7d7b3          	srl	a5,a5,a4
     a5c:	c55c                	sw	a5,12(a0)
     a5e:	4258                	lw	a4,4(a2)
     a60:	8339                	srli	a4,a4,0xe
     a62:	00377693          	andi	a3,a4,3
     a66:	80418713          	addi	a4,gp,-2044 # 20000014 <ADCPrescTable>
     a6a:	9736                	add	a4,a4,a3
     a6c:	2318                	lbu	a4,0(a4)
     a6e:	02e7d7b3          	divu	a5,a5,a4
     a72:	c91c                	sw	a5,16(a0)
     a74:	8082                	ret
     a76:	435c                	lw	a5,4(a4)
     a78:	4358                	lw	a4,4(a4)
     a7a:	66c1                	lui	a3,0x10
     a7c:	83c9                	srli	a5,a5,0x12
     a7e:	8f75                	and	a4,a4,a3
     a80:	1ffff6b7          	lui	a3,0x1ffff
     a84:	70c6a683          	lw	a3,1804(a3) # 1ffff70c <_data_lma+0x1fffcc54>
     a88:	8bbd                	andi	a5,a5,15
     a8a:	0789                	addi	a5,a5,2
     a8c:	01169613          	slli	a2,a3,0x11
     a90:	00064863          	bltz	a2,aa0 <RCC_GetClocksFreq+0x9e>
     a94:	46c5                	li	a3,17
     a96:	4601                	li	a2,0
     a98:	02d79263          	bne	a5,a3,abc <RCC_GetClocksFreq+0xba>
     a9c:	47c9                	li	a5,18
     a9e:	a839                	j	abc <RCC_GetClocksFreq+0xba>
     aa0:	4689                	li	a3,2
     aa2:	02d78f63          	beq	a5,a3,ae0 <RCC_GetClocksFreq+0xde>
     aa6:	46bd                	li	a3,15
     aa8:	02d78e63          	beq	a5,a3,ae4 <RCC_GetClocksFreq+0xe2>
     aac:	46c1                	li	a3,16
     aae:	02d78e63          	beq	a5,a3,aea <RCC_GetClocksFreq+0xe8>
     ab2:	46c5                	li	a3,17
     ab4:	4601                	li	a2,0
     ab6:	00d79363          	bne	a5,a3,abc <RCC_GetClocksFreq+0xba>
     aba:	47c1                	li	a5,16
     abc:	ef1d                	bnez	a4,afa <RCC_GetClocksFreq+0xf8>
     abe:	40024737          	lui	a4,0x40024
     ac2:	80072703          	lw	a4,-2048(a4) # 40023800 <__freertos_irq_stack_top+0x2001b800>
     ac6:	8b41                	andi	a4,a4,16
     ac8:	c705                	beqz	a4,af0 <RCC_GetClocksFreq+0xee>
     aca:	007a1737          	lui	a4,0x7a1
     ace:	20070713          	addi	a4,a4,512 # 7a1200 <_data_lma+0x79e748>
     ad2:	02f707b3          	mul	a5,a4,a5
     ad6:	c11c                	sw	a5,0(a0)
     ad8:	d621                	beqz	a2,a20 <RCC_GetClocksFreq+0x1e>
     ada:	411c                	lw	a5,0(a0)
     adc:	8385                	srli	a5,a5,0x1
     ade:	b781                	j	a1e <RCC_GetClocksFreq+0x1c>
     ae0:	4601                	li	a2,0
     ae2:	bf6d                	j	a9c <RCC_GetClocksFreq+0x9a>
     ae4:	4605                	li	a2,1
     ae6:	47b5                	li	a5,13
     ae8:	bfd1                	j	abc <RCC_GetClocksFreq+0xba>
     aea:	4601                	li	a2,0
     aec:	47bd                	li	a5,15
     aee:	b7f9                	j	abc <RCC_GetClocksFreq+0xba>
     af0:	003d1737          	lui	a4,0x3d1
     af4:	90070713          	addi	a4,a4,-1792 # 3d0900 <_data_lma+0x3cde48>
     af8:	bfe9                	j	ad2 <RCC_GetClocksFreq+0xd0>
     afa:	400215b7          	lui	a1,0x40021
     afe:	55d8                	lw	a4,44(a1)
     b00:	00f71693          	slli	a3,a4,0xf
     b04:	55d8                	lw	a4,44(a1)
     b06:	0406df63          	bgez	a3,b64 <RCC_GetClocksFreq+0x162>
     b0a:	8311                	srli	a4,a4,0x4
     b0c:	8b3d                	andi	a4,a4,15
     b0e:	00170693          	addi	a3,a4,1
     b12:	007a1737          	lui	a4,0x7a1
     b16:	20070713          	addi	a4,a4,512 # 7a1200 <_data_lma+0x79e748>
     b1a:	02d75733          	divu	a4,a4,a3
     b1e:	c118                	sw	a4,0(a0)
     b20:	55d4                	lw	a3,44(a1)
     b22:	82a1                	srli	a3,a3,0x8
     b24:	8abd                	andi	a3,a3,15
     b26:	e28d                	bnez	a3,b48 <RCC_GetClocksFreq+0x146>
     b28:	4695                	li	a3,5
     b2a:	02d70733          	mul	a4,a4,a3
     b2e:	8305                	srli	a4,a4,0x1
     b30:	c118                	sw	a4,0(a0)
     b32:	40021737          	lui	a4,0x40021
     b36:	5758                	lw	a4,44(a4)
     b38:	4114                	lw	a3,0(a0)
     b3a:	8b3d                	andi	a4,a4,15
     b3c:	0705                	addi	a4,a4,1
     b3e:	02e6d733          	divu	a4,a3,a4
     b42:	c118                	sw	a4,0(a0)
     b44:	4118                	lw	a4,0(a0)
     b46:	b771                	j	ad2 <RCC_GetClocksFreq+0xd0>
     b48:	4585                	li	a1,1
     b4a:	00b69463          	bne	a3,a1,b52 <RCC_GetClocksFreq+0x150>
     b4e:	46e5                	li	a3,25
     b50:	bfe9                	j	b2a <RCC_GetClocksFreq+0x128>
     b52:	45bd                	li	a1,15
     b54:	00b69663          	bne	a3,a1,b60 <RCC_GetClocksFreq+0x15e>
     b58:	46d1                	li	a3,20
     b5a:	02e68733          	mul	a4,a3,a4
     b5e:	bfc9                	j	b30 <RCC_GetClocksFreq+0x12e>
     b60:	0689                	addi	a3,a3,2
     b62:	bfe5                	j	b5a <RCC_GetClocksFreq+0x158>
     b64:	8b3d                	andi	a4,a4,15
     b66:	00170693          	addi	a3,a4,1 # 40021001 <__freertos_irq_stack_top+0x20019001>
     b6a:	007a1737          	lui	a4,0x7a1
     b6e:	20070713          	addi	a4,a4,512 # 7a1200 <_data_lma+0x79e748>
     b72:	02d75733          	divu	a4,a4,a3
     b76:	b7f1                	j	b42 <RCC_GetClocksFreq+0x140>

00000b78 <RCC_APB2PeriphClockCmd>:
     b78:	c599                	beqz	a1,b86 <RCC_APB2PeriphClockCmd+0xe>
     b7a:	40021737          	lui	a4,0x40021
     b7e:	4f1c                	lw	a5,24(a4)
     b80:	8d5d                	or	a0,a0,a5
     b82:	cf08                	sw	a0,24(a4)
     b84:	8082                	ret
     b86:	400217b7          	lui	a5,0x40021
     b8a:	4f98                	lw	a4,24(a5)
     b8c:	fff54513          	not	a0,a0
     b90:	8d79                	and	a0,a0,a4
     b92:	cf88                	sw	a0,24(a5)
     b94:	8082                	ret

00000b96 <USART_Init>:
     b96:	981ff2ef          	jal	t0,516 <__riscv_save_0>
     b9a:	2916                	lhu	a3,16(a0)
     b9c:	77f5                	lui	a5,0xffffd
     b9e:	17fd                	addi	a5,a5,-1
     ba0:	8ff5                	and	a5,a5,a3
     ba2:	21f6                	lhu	a3,6(a1)
     ba4:	25da                	lhu	a4,12(a1)
     ba6:	7179                	addi	sp,sp,-48
     ba8:	8fd5                	or	a5,a5,a3
     baa:	a91e                	sh	a5,16(a0)
     bac:	2556                	lhu	a3,12(a0)
     bae:	77fd                	lui	a5,0xfffff
     bb0:	9f378793          	addi	a5,a5,-1549 # ffffe9f3 <__freertos_irq_stack_top+0xdfff69f3>
     bb4:	8ff5                	and	a5,a5,a3
     bb6:	21d6                	lhu	a3,4(a1)
     bb8:	842a                	mv	s0,a0
     bba:	c62e                	sw	a1,12(sp)
     bbc:	8fd5                	or	a5,a5,a3
     bbe:	2596                	lhu	a3,8(a1)
     bc0:	8fd5                	or	a5,a5,a3
     bc2:	25b6                	lhu	a3,10(a1)
     bc4:	8fd5                	or	a5,a5,a3
     bc6:	a55e                	sh	a5,12(a0)
     bc8:	295e                	lhu	a5,20(a0)
     bca:	07c2                	slli	a5,a5,0x10
     bcc:	83c1                	srli	a5,a5,0x10
     bce:	cff7f793          	andi	a5,a5,-769
     bd2:	8fd9                	or	a5,a5,a4
     bd4:	a95e                	sh	a5,20(a0)
     bd6:	0868                	addi	a0,sp,28
     bd8:	352d                	jal	a02 <RCC_GetClocksFreq>
     bda:	400147b7          	lui	a5,0x40014
     bde:	80078793          	addi	a5,a5,-2048 # 40013800 <__freertos_irq_stack_top+0x2000b800>
     be2:	45b2                	lw	a1,12(sp)
     be4:	04f41963          	bne	s0,a5,c36 <USART_Init+0xa0>
     be8:	57a2                	lw	a5,40(sp)
     bea:	2456                	lhu	a3,12(s0)
     bec:	4765                	li	a4,25
     bee:	02e787b3          	mul	a5,a5,a4
     bf2:	06c2                	slli	a3,a3,0x10
     bf4:	86c1                	srai	a3,a3,0x10
     bf6:	4198                	lw	a4,0(a1)
     bf8:	0406d163          	bgez	a3,c3a <USART_Init+0xa4>
     bfc:	0706                	slli	a4,a4,0x1
     bfe:	2452                	lhu	a2,12(s0)
     c00:	0642                	slli	a2,a2,0x10
     c02:	02e7d7b3          	divu	a5,a5,a4
     c06:	06400713          	li	a4,100
     c0a:	8641                	srai	a2,a2,0x10
     c0c:	02e7d6b3          	divu	a3,a5,a4
     c10:	02e7f7b3          	remu	a5,a5,a4
     c14:	0692                	slli	a3,a3,0x4
     c16:	02065463          	bgez	a2,c3e <USART_Init+0xa8>
     c1a:	078e                	slli	a5,a5,0x3
     c1c:	03278793          	addi	a5,a5,50
     c20:	02e7d7b3          	divu	a5,a5,a4
     c24:	0077f713          	andi	a4,a5,7
     c28:	00d767b3          	or	a5,a4,a3
     c2c:	07c2                	slli	a5,a5,0x10
     c2e:	83c1                	srli	a5,a5,0x10
     c30:	a41e                	sh	a5,8(s0)
     c32:	6145                	addi	sp,sp,48
     c34:	b219                	j	53a <__riscv_restore_0>
     c36:	5792                	lw	a5,36(sp)
     c38:	bf4d                	j	bea <USART_Init+0x54>
     c3a:	070a                	slli	a4,a4,0x2
     c3c:	b7c9                	j	bfe <USART_Init+0x68>
     c3e:	0792                	slli	a5,a5,0x4
     c40:	03278793          	addi	a5,a5,50
     c44:	02e7d7b3          	divu	a5,a5,a4
     c48:	8bbd                	andi	a5,a5,15
     c4a:	8fd5                	or	a5,a5,a3
     c4c:	b7c5                	j	c2c <USART_Init+0x96>

00000c4e <USART_Cmd>:
     c4e:	c591                	beqz	a1,c5a <USART_Cmd+0xc>
     c50:	255e                	lhu	a5,12(a0)
     c52:	6709                	lui	a4,0x2
     c54:	8fd9                	or	a5,a5,a4
     c56:	a55e                	sh	a5,12(a0)
     c58:	8082                	ret
     c5a:	255a                	lhu	a4,12(a0)
     c5c:	77f9                	lui	a5,0xffffe
     c5e:	17fd                	addi	a5,a5,-1
     c60:	8ff9                	and	a5,a5,a4
     c62:	bfd5                	j	c56 <USART_Cmd+0x8>

00000c64 <USART_SendData>:
     c64:	1ff5f593          	andi	a1,a1,511
     c68:	a14e                	sh	a1,4(a0)
     c6a:	8082                	ret

00000c6c <USART_GetFlagStatus>:
     c6c:	210a                	lhu	a0,0(a0)
     c6e:	8d6d                	and	a0,a0,a1
     c70:	00a03533          	snez	a0,a0
     c74:	8082                	ret

00000c76 <prvInsertBlockIntoFreeList>:
     c76:	200007b7          	lui	a5,0x20000
     c7a:	05078793          	addi	a5,a5,80 # 20000050 <xStart>
     c7e:	4398                	lw	a4,0(a5)
     c80:	02a76f63          	bltu	a4,a0,cbe <prvInsertBlockIntoFreeList+0x48>
     c84:	43d0                	lw	a2,4(a5)
     c86:	00c786b3          	add	a3,a5,a2
     c8a:	00d51663          	bne	a0,a3,c96 <prvInsertBlockIntoFreeList+0x20>
     c8e:	4154                	lw	a3,4(a0)
     c90:	853e                	mv	a0,a5
     c92:	96b2                	add	a3,a3,a2
     c94:	c3d4                	sw	a3,4(a5)
     c96:	4150                	lw	a2,4(a0)
     c98:	00c506b3          	add	a3,a0,a2
     c9c:	00d71c63          	bne	a4,a3,cb4 <prvInsertBlockIntoFreeList+0x3e>
     ca0:	200006b7          	lui	a3,0x20000
     ca4:	0386a683          	lw	a3,56(a3) # 20000038 <pxEnd>
     ca8:	00d70663          	beq	a4,a3,cb4 <prvInsertBlockIntoFreeList+0x3e>
     cac:	4354                	lw	a3,4(a4)
     cae:	4318                	lw	a4,0(a4)
     cb0:	96b2                	add	a3,a3,a2
     cb2:	c154                	sw	a3,4(a0)
     cb4:	c118                	sw	a4,0(a0)
     cb6:	00f50363          	beq	a0,a5,cbc <prvInsertBlockIntoFreeList+0x46>
     cba:	c388                	sw	a0,0(a5)
     cbc:	8082                	ret
     cbe:	87ba                	mv	a5,a4
     cc0:	bf7d                	j	c7e <prvInsertBlockIntoFreeList+0x8>

00000cc2 <pvPortMalloc>:
     cc2:	83bff2ef          	jal	t0,4fc <__riscv_save_4>
     cc6:	1141                	addi	sp,sp,-16
     cc8:	c62a                	sw	a0,12(sp)
     cca:	36f000ef          	jal	ra,1838 <vTaskSuspendAll>
     cce:	200006b7          	lui	a3,0x20000
     cd2:	0386a783          	lw	a5,56(a3) # 20000038 <pxEnd>
     cd6:	20000637          	lui	a2,0x20000
     cda:	03868693          	addi	a3,a3,56
     cde:	03c60613          	addi	a2,a2,60 # 2000003c <xBlockAllocatedBit>
     ce2:	4532                	lw	a0,12(sp)
     ce4:	efa1                	bnez	a5,d3c <pvPortMalloc+0x7a>
     ce6:	20000737          	lui	a4,0x20000
     cea:	0ac70793          	addi	a5,a4,172 # 200000ac <ucHeap>
     cee:	00f7f593          	andi	a1,a5,15
     cf2:	0ac70713          	addi	a4,a4,172
     cf6:	c581                	beqz	a1,cfe <pvPortMalloc+0x3c>
     cf8:	00f78713          	addi	a4,a5,15
     cfc:	9b41                	andi	a4,a4,-16
     cfe:	200005b7          	lui	a1,0x20000
     d02:	05058593          	addi	a1,a1,80 # 20000050 <xStart>
     d06:	0005a223          	sw	zero,4(a1)
     d0a:	c198                	sw	a4,0(a1)
     d0c:	658d                	lui	a1,0x3
     d0e:	15c1                	addi	a1,a1,-16
     d10:	97ae                	add	a5,a5,a1
     d12:	9bc1                	andi	a5,a5,-16
     d14:	0007a223          	sw	zero,4(a5)
     d18:	0007a023          	sw	zero,0(a5)
     d1c:	40e785b3          	sub	a1,a5,a4
     d20:	c29c                	sw	a5,0(a3)
     d22:	c31c                	sw	a5,0(a4)
     d24:	200007b7          	lui	a5,0x20000
     d28:	04b7a223          	sw	a1,68(a5) # 20000044 <xMinimumEverFreeBytesRemaining>
     d2c:	200007b7          	lui	a5,0x20000
     d30:	04b7a023          	sw	a1,64(a5) # 20000040 <xFreeBytesRemaining>
     d34:	800007b7          	lui	a5,0x80000
     d38:	c34c                	sw	a1,4(a4)
     d3a:	c21c                	sw	a5,0(a2)
     d3c:	00062a03          	lw	s4,0(a2)
     d40:	00aa77b3          	and	a5,s4,a0
     d44:	e385                	bnez	a5,d64 <pvPortMalloc+0xa2>
     d46:	fff50793          	addi	a5,a0,-1
     d4a:	5739                	li	a4,-18
     d4c:	00f76c63          	bltu	a4,a5,d64 <pvPortMalloc+0xa2>
     d50:	01050793          	addi	a5,a0,16
     d54:	00f7f713          	andi	a4,a5,15
     d58:	c341                	beqz	a4,dd8 <pvPortMalloc+0x116>
     d5a:	ff07f713          	andi	a4,a5,-16
     d5e:	0741                	addi	a4,a4,16
     d60:	06e7eb63          	bltu	a5,a4,dd6 <pvPortMalloc+0x114>
     d64:	4481                	li	s1,0
     d66:	a089                	j	da8 <pvPortMalloc+0xe6>
     d68:	8722                	mv	a4,s0
     d6a:	842e                	mv	s0,a1
     d6c:	a061                	j	df4 <pvPortMalloc+0x132>
     d6e:	c158                	sw	a4,4(a0)
     d70:	c05c                	sw	a5,4(s0)
     d72:	3711                	jal	c76 <prvInsertBlockIntoFreeList>
     d74:	4058                	lw	a4,4(s0)
     d76:	200006b7          	lui	a3,0x20000
     d7a:	04468693          	addi	a3,a3,68 # 20000044 <xMinimumEverFreeBytesRemaining>
     d7e:	4290                	lw	a2,0(a3)
     d80:	40e907b3          	sub	a5,s2,a4
     d84:	00f9a023          	sw	a5,0(s3)
     d88:	00c7f363          	bgeu	a5,a2,d8e <pvPortMalloc+0xcc>
     d8c:	c29c                	sw	a5,0(a3)
     d8e:	200007b7          	lui	a5,0x20000
     d92:	00ea6733          	or	a4,s4,a4
     d96:	04878793          	addi	a5,a5,72 # 20000048 <xNumberOfSuccessfulAllocations>
     d9a:	c058                	sw	a4,4(s0)
     d9c:	4398                	lw	a4,0(a5)
     d9e:	04c1                	addi	s1,s1,16
     da0:	00042023          	sw	zero,0(s0)
     da4:	0705                	addi	a4,a4,1
     da6:	c398                	sw	a4,0(a5)
     da8:	455000ef          	jal	ra,19fc <xTaskResumeAll>
     dac:	00f4f793          	andi	a5,s1,15
     db0:	cbd1                	beqz	a5,e44 <pvPortMalloc+0x182>
     db2:	67a1                	lui	a5,0x8
     db4:	80078793          	addi	a5,a5,-2048 # 7800 <_data_lma+0x4d48>
     db8:	30079073          	csrw	mstatus,a5
     dbc:	00003637          	lui	a2,0x3
     dc0:	00003537          	lui	a0,0x3
     dc4:	9c060613          	addi	a2,a2,-1600 # 29c0 <memcpy+0x12a>
     dc8:	11000593          	li	a1,272
     dcc:	9e850513          	addi	a0,a0,-1560 # 29e8 <memcpy+0x152>
     dd0:	259010ef          	jal	ra,2828 <printf>
     dd4:	a001                	j	dd4 <pvPortMalloc+0x112>
     dd6:	87ba                	mv	a5,a4
     dd8:	20000737          	lui	a4,0x20000
     ddc:	04072903          	lw	s2,64(a4) # 20000040 <xFreeBytesRemaining>
     de0:	04070993          	addi	s3,a4,64
     de4:	f8f960e3          	bltu	s2,a5,d64 <pvPortMalloc+0xa2>
     de8:	20000737          	lui	a4,0x20000
     dec:	05072403          	lw	s0,80(a4) # 20000050 <xStart>
     df0:	05070713          	addi	a4,a4,80
     df4:	4050                	lw	a2,4(s0)
     df6:	00f67463          	bgeu	a2,a5,dfe <pvPortMalloc+0x13c>
     dfa:	400c                	lw	a1,0(s0)
     dfc:	f5b5                	bnez	a1,d68 <pvPortMalloc+0xa6>
     dfe:	4294                	lw	a3,0(a3)
     e00:	f68682e3          	beq	a3,s0,d64 <pvPortMalloc+0xa2>
     e04:	4014                	lw	a3,0(s0)
     e06:	4304                	lw	s1,0(a4)
     e08:	c314                	sw	a3,0(a4)
     e0a:	40f60733          	sub	a4,a2,a5
     e0e:	02000693          	li	a3,32
     e12:	f6e6f1e3          	bgeu	a3,a4,d74 <pvPortMalloc+0xb2>
     e16:	00f40533          	add	a0,s0,a5
     e1a:	00f57693          	andi	a3,a0,15
     e1e:	daa1                	beqz	a3,d6e <pvPortMalloc+0xac>
     e20:	67a1                	lui	a5,0x8
     e22:	80078793          	addi	a5,a5,-2048 # 7800 <_data_lma+0x4d48>
     e26:	30079073          	csrw	mstatus,a5
     e2a:	00003637          	lui	a2,0x3
     e2e:	00003537          	lui	a0,0x3
     e32:	9c060613          	addi	a2,a2,-1600 # 29c0 <memcpy+0x12a>
     e36:	0cf00593          	li	a1,207
     e3a:	9e850513          	addi	a0,a0,-1560 # 29e8 <memcpy+0x152>
     e3e:	1eb010ef          	jal	ra,2828 <printf>
     e42:	a001                	j	e42 <pvPortMalloc+0x180>
     e44:	8526                	mv	a0,s1
     e46:	0141                	addi	sp,sp,16
     e48:	ee8ff06f          	j	530 <__riscv_restore_4>

00000e4c <vPortFree>:
     e4c:	c155                	beqz	a0,ef0 <vPortFree+0xa4>
     e4e:	ec8ff2ef          	jal	t0,516 <__riscv_save_0>
     e52:	200007b7          	lui	a5,0x20000
     e56:	ff452703          	lw	a4,-12(a0)
     e5a:	03c7a783          	lw	a5,60(a5) # 2000003c <xBlockAllocatedBit>
     e5e:	842a                	mv	s0,a0
     e60:	00f776b3          	and	a3,a4,a5
     e64:	e29d                	bnez	a3,e8a <vPortFree+0x3e>
     e66:	67a1                	lui	a5,0x8
     e68:	80078793          	addi	a5,a5,-2048 # 7800 <_data_lma+0x4d48>
     e6c:	30079073          	csrw	mstatus,a5
     e70:	00003637          	lui	a2,0x3
     e74:	00003537          	lui	a0,0x3
     e78:	9c060613          	addi	a2,a2,-1600 # 29c0 <memcpy+0x12a>
     e7c:	12400593          	li	a1,292
     e80:	9e850513          	addi	a0,a0,-1560 # 29e8 <memcpy+0x152>
     e84:	1a5010ef          	jal	ra,2828 <printf>
     e88:	a001                	j	e88 <vPortFree+0x3c>
     e8a:	ff052683          	lw	a3,-16(a0)
     e8e:	c29d                	beqz	a3,eb4 <vPortFree+0x68>
     e90:	67a1                	lui	a5,0x8
     e92:	80078793          	addi	a5,a5,-2048 # 7800 <_data_lma+0x4d48>
     e96:	30079073          	csrw	mstatus,a5
     e9a:	00003637          	lui	a2,0x3
     e9e:	00003537          	lui	a0,0x3
     ea2:	9c060613          	addi	a2,a2,-1600 # 29c0 <memcpy+0x12a>
     ea6:	12500593          	li	a1,293
     eaa:	9e850513          	addi	a0,a0,-1560 # 29e8 <memcpy+0x152>
     eae:	17b010ef          	jal	ra,2828 <printf>
     eb2:	a001                	j	eb2 <vPortFree+0x66>
     eb4:	fff7c793          	not	a5,a5
     eb8:	8ff9                	and	a5,a5,a4
     eba:	fef52a23          	sw	a5,-12(a0)
     ebe:	17b000ef          	jal	ra,1838 <vTaskSuspendAll>
     ec2:	200007b7          	lui	a5,0x20000
     ec6:	04078793          	addi	a5,a5,64 # 20000040 <xFreeBytesRemaining>
     eca:	4394                	lw	a3,0(a5)
     ecc:	ff442703          	lw	a4,-12(s0)
     ed0:	ff040513          	addi	a0,s0,-16
     ed4:	9736                	add	a4,a4,a3
     ed6:	c398                	sw	a4,0(a5)
     ed8:	3b79                	jal	c76 <prvInsertBlockIntoFreeList>
     eda:	200007b7          	lui	a5,0x20000
     ede:	04c78793          	addi	a5,a5,76 # 2000004c <xNumberOfSuccessfulFrees>
     ee2:	4398                	lw	a4,0(a5)
     ee4:	0705                	addi	a4,a4,1
     ee6:	c398                	sw	a4,0(a5)
     ee8:	315000ef          	jal	ra,19fc <xTaskResumeAll>
     eec:	e4eff06f          	j	53a <__riscv_restore_0>
     ef0:	8082                	ret

00000ef2 <vPortSetupTimerInterrupt>:
     ef2:	e000e7b7          	lui	a5,0xe000e
     ef6:	5741                	li	a4,-16
     ef8:	40e78723          	sb	a4,1038(a5) # e000e40e <__freertos_irq_stack_top+0xc000640e>
     efc:	40e78623          	sb	a4,1036(a5)
     f00:	e000f7b7          	lui	a5,0xe000f
     f04:	0007a023          	sw	zero,0(a5) # e000f000 <__freertos_irq_stack_top+0xc0007000>
     f08:	0007a223          	sw	zero,4(a5)
     f0c:	4681                	li	a3,0
     f0e:	c794                	sw	a3,8(a5)
     f10:	4701                	li	a4,0
     f12:	c7d8                	sw	a4,12(a5)
     f14:	20000737          	lui	a4,0x20000
     f18:	01072583          	lw	a1,16(a4) # 20000010 <SystemCoreClock>
     f1c:	1f400713          	li	a4,500
     f20:	4681                	li	a3,0
     f22:	02e5d633          	divu	a2,a1,a4
     f26:	473d                	li	a4,15
     f28:	cb90                	sw	a2,16(a5)
     f2a:	cbd4                	sw	a3,20(a5)
     f2c:	c398                	sw	a4,0(a5)
     f2e:	8082                	ret

00000f30 <xPortStartScheduler>:
     f30:	de6ff2ef          	jal	t0,516 <__riscv_save_0>
     f34:	1141                	addi	sp,sp,-16
     f36:	c602                	sw	zero,12(sp)
     f38:	305027f3          	csrr	a5,mtvec
     f3c:	c63e                	sw	a5,12(sp)
     f3e:	47b2                	lw	a5,12(sp)
     f40:	470d                	li	a4,3
     f42:	8b8d                	andi	a5,a5,3
     f44:	02e78463          	beq	a5,a4,f6c <xPortStartScheduler+0x3c>
     f48:	67a1                	lui	a5,0x8
     f4a:	80078793          	addi	a5,a5,-2048 # 7800 <_data_lma+0x4d48>
     f4e:	30079073          	csrw	mstatus,a5
     f52:	00003637          	lui	a2,0x3
     f56:	00003537          	lui	a0,0x3
     f5a:	a0c60613          	addi	a2,a2,-1524 # 2a0c <memcpy+0x176>
     f5e:	0b600593          	li	a1,182
     f62:	9e850513          	addi	a0,a0,-1560 # 29e8 <memcpy+0x152>
     f66:	0c3010ef          	jal	ra,2828 <printf>
     f6a:	a001                	j	f6a <xPortStartScheduler+0x3a>
     f6c:	200087b7          	lui	a5,0x20008
     f70:	00078793          	mv	a5,a5
     f74:	8bbd                	andi	a5,a5,15
     f76:	c39d                	beqz	a5,f9c <xPortStartScheduler+0x6c>
     f78:	67a1                	lui	a5,0x8
     f7a:	80078793          	addi	a5,a5,-2048 # 7800 <_data_lma+0x4d48>
     f7e:	30079073          	csrw	mstatus,a5
     f82:	00003637          	lui	a2,0x3
     f86:	00003537          	lui	a0,0x3
     f8a:	a0c60613          	addi	a2,a2,-1524 # 2a0c <memcpy+0x176>
     f8e:	0bb00593          	li	a1,187
     f92:	9e850513          	addi	a0,a0,-1560 # 29e8 <memcpy+0x152>
     f96:	093010ef          	jal	ra,2828 <printf>
     f9a:	a001                	j	f9a <xPortStartScheduler+0x6a>
     f9c:	3f99                	jal	ef2 <vPortSetupTimerInterrupt>
     f9e:	e000e7b7          	lui	a5,0xe000e
     fa2:	6705                	lui	a4,0x1
     fa4:	10e7a023          	sw	a4,256(a5) # e000e100 <__freertos_irq_stack_top+0xc0006100>
     fa8:	6711                	lui	a4,0x4
     faa:	10e7a023          	sw	a4,256(a5)
     fae:	8001a423          	sw	zero,-2040(gp) # 20000018 <uxCriticalNesting>
     fb2:	b4eff0ef          	jal	ra,300 <xPortStartFirstTask>
     fb6:	4501                	li	a0,0
     fb8:	0141                	addi	sp,sp,16
     fba:	d80ff06f          	j	53a <__riscv_restore_0>

00000fbe <SysTick_Handler>:
     fbe:	34011173          	csrrw	sp,mscratch,sp
     fc2:	67a1                	lui	a5,0x8
     fc4:	80078793          	addi	a5,a5,-2048 # 7800 <_data_lma+0x4d48>
     fc8:	30079073          	csrw	mstatus,a5
     fcc:	e000f7b7          	lui	a5,0xe000f
     fd0:	0007a223          	sw	zero,4(a5) # e000f004 <__freertos_irq_stack_top+0xc0007004>
     fd4:	07f000ef          	jal	ra,1852 <xTaskIncrementTick>
     fd8:	c511                	beqz	a0,fe4 <SysTick_Handler+0x26>
     fda:	e000e7b7          	lui	a5,0xe000e
     fde:	6711                	lui	a4,0x4
     fe0:	20e7a023          	sw	a4,512(a5) # e000e200 <__freertos_irq_stack_top+0xc0006200>
     fe4:	67a1                	lui	a5,0x8
     fe6:	88878793          	addi	a5,a5,-1912 # 7888 <_data_lma+0x4dd0>
     fea:	30079073          	csrw	mstatus,a5
     fee:	34011173          	csrrw	sp,mscratch,sp
     ff2:	30200073          	mret

00000ff6 <vPortEnterCritical>:
     ff6:	67a1                	lui	a5,0x8
     ff8:	80078793          	addi	a5,a5,-2048 # 7800 <_data_lma+0x4d48>
     ffc:	30079073          	csrw	mstatus,a5
    1000:	80818793          	addi	a5,gp,-2040 # 20000018 <uxCriticalNesting>
    1004:	4398                	lw	a4,0(a5)
    1006:	0705                	addi	a4,a4,1
    1008:	c398                	sw	a4,0(a5)
    100a:	8082                	ret

0000100c <vPortExitCritical>:
    100c:	80818713          	addi	a4,gp,-2040 # 20000018 <uxCriticalNesting>
    1010:	431c                	lw	a5,0(a4)
    1012:	e78d                	bnez	a5,103c <vPortExitCritical+0x30>
    1014:	d02ff2ef          	jal	t0,516 <__riscv_save_0>
    1018:	67a1                	lui	a5,0x8
    101a:	80078793          	addi	a5,a5,-2048 # 7800 <_data_lma+0x4d48>
    101e:	30079073          	csrw	mstatus,a5
    1022:	00003637          	lui	a2,0x3
    1026:	00003537          	lui	a0,0x3
    102a:	a0c60613          	addi	a2,a2,-1524 # 2a0c <memcpy+0x176>
    102e:	10200593          	li	a1,258
    1032:	9e850513          	addi	a0,a0,-1560 # 29e8 <memcpy+0x152>
    1036:	7f2010ef          	jal	ra,2828 <printf>
    103a:	a001                	j	103a <vPortExitCritical+0x2e>
    103c:	17fd                	addi	a5,a5,-1
    103e:	c31c                	sw	a5,0(a4)
    1040:	e791                	bnez	a5,104c <vPortExitCritical+0x40>
    1042:	67a1                	lui	a5,0x8
    1044:	88878793          	addi	a5,a5,-1912 # 7888 <_data_lma+0x4dd0>
    1048:	30079073          	csrw	mstatus,a5
    104c:	8082                	ret

0000104e <vListInitialise>:
    104e:	00850793          	addi	a5,a0,8
    1052:	577d                	li	a4,-1
    1054:	c15c                	sw	a5,4(a0)
    1056:	c518                	sw	a4,8(a0)
    1058:	c55c                	sw	a5,12(a0)
    105a:	c91c                	sw	a5,16(a0)
    105c:	00052023          	sw	zero,0(a0)
    1060:	8082                	ret

00001062 <vListInitialiseItem>:
    1062:	00052823          	sw	zero,16(a0)
    1066:	8082                	ret

00001068 <vListInsert>:
    1068:	4198                	lw	a4,0(a1)
    106a:	56fd                	li	a3,-1
    106c:	00850793          	addi	a5,a0,8
    1070:	00d71e63          	bne	a4,a3,108c <vListInsert+0x24>
    1074:	491c                	lw	a5,16(a0)
    1076:	43d8                	lw	a4,4(a5)
    1078:	c1d8                	sw	a4,4(a1)
    107a:	c70c                	sw	a1,8(a4)
    107c:	c59c                	sw	a5,8(a1)
    107e:	c3cc                	sw	a1,4(a5)
    1080:	411c                	lw	a5,0(a0)
    1082:	c988                	sw	a0,16(a1)
    1084:	0785                	addi	a5,a5,1
    1086:	c11c                	sw	a5,0(a0)
    1088:	8082                	ret
    108a:	87b6                	mv	a5,a3
    108c:	43d4                	lw	a3,4(a5)
    108e:	4290                	lw	a2,0(a3)
    1090:	fec77de3          	bgeu	a4,a2,108a <vListInsert+0x22>
    1094:	b7cd                	j	1076 <vListInsert+0xe>

00001096 <uxListRemove>:
    1096:	4154                	lw	a3,4(a0)
    1098:	4518                	lw	a4,8(a0)
    109a:	491c                	lw	a5,16(a0)
    109c:	c698                	sw	a4,8(a3)
    109e:	c354                	sw	a3,4(a4)
    10a0:	43d4                	lw	a3,4(a5)
    10a2:	00a69363          	bne	a3,a0,10a8 <uxListRemove+0x12>
    10a6:	c3d8                	sw	a4,4(a5)
    10a8:	4398                	lw	a4,0(a5)
    10aa:	00052823          	sw	zero,16(a0)
    10ae:	177d                	addi	a4,a4,-1
    10b0:	c398                	sw	a4,0(a5)
    10b2:	4388                	lw	a0,0(a5)
    10b4:	8082                	ret

000010b6 <prvIsQueueEmpty>:
    10b6:	c60ff2ef          	jal	t0,516 <__riscv_save_0>
    10ba:	1141                	addi	sp,sp,-16
    10bc:	c62a                	sw	a0,12(sp)
    10be:	3f25                	jal	ff6 <vPortEnterCritical>
    10c0:	4532                	lw	a0,12(sp)
    10c2:	5d00                	lw	s0,56(a0)
    10c4:	37a1                	jal	100c <vPortExitCritical>
    10c6:	00143513          	seqz	a0,s0
    10ca:	0141                	addi	sp,sp,16
    10cc:	c6eff06f          	j	53a <__riscv_restore_0>

000010d0 <prvCopyDataFromQueue>:
    10d0:	4130                	lw	a2,64(a0)
    10d2:	c215                	beqz	a2,10f6 <prvCopyDataFromQueue+0x26>
    10d4:	c42ff2ef          	jal	t0,516 <__riscv_save_0>
    10d8:	4558                	lw	a4,12(a0)
    10da:	4514                	lw	a3,8(a0)
    10dc:	87aa                	mv	a5,a0
    10de:	9732                	add	a4,a4,a2
    10e0:	c558                	sw	a4,12(a0)
    10e2:	00d76463          	bltu	a4,a3,10ea <prvCopyDataFromQueue+0x1a>
    10e6:	4118                	lw	a4,0(a0)
    10e8:	c558                	sw	a4,12(a0)
    10ea:	852e                	mv	a0,a1
    10ec:	47cc                	lw	a1,12(a5)
    10ee:	7a8010ef          	jal	ra,2896 <memcpy>
    10f2:	c48ff06f          	j	53a <__riscv_restore_0>
    10f6:	8082                	ret

000010f8 <prvUnlockQueue>:
    10f8:	c1eff2ef          	jal	t0,516 <__riscv_save_0>
    10fc:	842a                	mv	s0,a0
    10fe:	3de5                	jal	ff6 <vPortEnterCritical>
    1100:	04544483          	lbu	s1,69(s0)
    1104:	02440913          	addi	s2,s0,36
    1108:	04e2                	slli	s1,s1,0x18
    110a:	84e1                	srai	s1,s1,0x18
    110c:	02904563          	bgtz	s1,1136 <prvUnlockQueue+0x3e>
    1110:	57fd                	li	a5,-1
    1112:	04f402a3          	sb	a5,69(s0)
    1116:	3ddd                	jal	100c <vPortExitCritical>
    1118:	3df9                	jal	ff6 <vPortEnterCritical>
    111a:	04444483          	lbu	s1,68(s0)
    111e:	01040913          	addi	s2,s0,16
    1122:	04e2                	slli	s1,s1,0x18
    1124:	84e1                	srai	s1,s1,0x18
    1126:	02904463          	bgtz	s1,114e <prvUnlockQueue+0x56>
    112a:	57fd                	li	a5,-1
    112c:	04f40223          	sb	a5,68(s0)
    1130:	3df1                	jal	100c <vPortExitCritical>
    1132:	c08ff06f          	j	53a <__riscv_restore_0>
    1136:	505c                	lw	a5,36(s0)
    1138:	dfe1                	beqz	a5,1110 <prvUnlockQueue+0x18>
    113a:	854a                	mv	a0,s2
    113c:	3e1000ef          	jal	ra,1d1c <xTaskRemoveFromEventList>
    1140:	c119                	beqz	a0,1146 <prvUnlockQueue+0x4e>
    1142:	5a5000ef          	jal	ra,1ee6 <vTaskMissedYield>
    1146:	14fd                	addi	s1,s1,-1
    1148:	04e2                	slli	s1,s1,0x18
    114a:	84e1                	srai	s1,s1,0x18
    114c:	b7c1                	j	110c <prvUnlockQueue+0x14>
    114e:	481c                	lw	a5,16(s0)
    1150:	dfe9                	beqz	a5,112a <prvUnlockQueue+0x32>
    1152:	854a                	mv	a0,s2
    1154:	3c9000ef          	jal	ra,1d1c <xTaskRemoveFromEventList>
    1158:	c119                	beqz	a0,115e <prvUnlockQueue+0x66>
    115a:	58d000ef          	jal	ra,1ee6 <vTaskMissedYield>
    115e:	14fd                	addi	s1,s1,-1
    1160:	04e2                	slli	s1,s1,0x18
    1162:	84e1                	srai	s1,s1,0x18
    1164:	b7c9                	j	1126 <prvUnlockQueue+0x2e>

00001166 <xQueueGenericReset>:
    1166:	bb0ff2ef          	jal	t0,516 <__riscv_save_0>
    116a:	1141                	addi	sp,sp,-16
    116c:	e11d                	bnez	a0,1192 <xQueueGenericReset+0x2c>
    116e:	67a1                	lui	a5,0x8
    1170:	80078793          	addi	a5,a5,-2048 # 7800 <_data_lma+0x4d48>
    1174:	30079073          	csrw	mstatus,a5
    1178:	00003637          	lui	a2,0x3
    117c:	00003537          	lui	a0,0x3
    1180:	a3460613          	addi	a2,a2,-1484 # 2a34 <memcpy+0x19e>
    1184:	11000593          	li	a1,272
    1188:	9e850513          	addi	a0,a0,-1560 # 29e8 <memcpy+0x152>
    118c:	69c010ef          	jal	ra,2828 <printf>
    1190:	a001                	j	1190 <xQueueGenericReset+0x2a>
    1192:	5d5c                	lw	a5,60(a0)
    1194:	c62e                	sw	a1,12(sp)
    1196:	842a                	mv	s0,a0
    1198:	c3bd                	beqz	a5,11fe <xQueueGenericReset+0x98>
    119a:	4138                	lw	a4,64(a0)
    119c:	02e7b7b3          	mulhu	a5,a5,a4
    11a0:	efb9                	bnez	a5,11fe <xQueueGenericReset+0x98>
    11a2:	3d91                	jal	ff6 <vPortEnterCritical>
    11a4:	4030                	lw	a2,64(s0)
    11a6:	5c58                	lw	a4,60(s0)
    11a8:	4014                	lw	a3,0(s0)
    11aa:	02042c23          	sw	zero,56(s0)
    11ae:	02e607b3          	mul	a5,a2,a4
    11b2:	45b2                	lw	a1,12(sp)
    11b4:	c054                	sw	a3,4(s0)
    11b6:	00f68733          	add	a4,a3,a5
    11ba:	8f91                	sub	a5,a5,a2
    11bc:	97b6                	add	a5,a5,a3
    11be:	c45c                	sw	a5,12(s0)
    11c0:	57fd                	li	a5,-1
    11c2:	04f40223          	sb	a5,68(s0)
    11c6:	c418                	sw	a4,8(s0)
    11c8:	04f402a3          	sb	a5,69(s0)
    11cc:	e195                	bnez	a1,11f0 <xQueueGenericReset+0x8a>
    11ce:	481c                	lw	a5,16(s0)
    11d0:	cb99                	beqz	a5,11e6 <xQueueGenericReset+0x80>
    11d2:	01040513          	addi	a0,s0,16
    11d6:	347000ef          	jal	ra,1d1c <xTaskRemoveFromEventList>
    11da:	c511                	beqz	a0,11e6 <xQueueGenericReset+0x80>
    11dc:	e000e7b7          	lui	a5,0xe000e
    11e0:	6711                	lui	a4,0x4
    11e2:	20e7a023          	sw	a4,512(a5) # e000e200 <__freertos_irq_stack_top+0xc0006200>
    11e6:	351d                	jal	100c <vPortExitCritical>
    11e8:	4505                	li	a0,1
    11ea:	0141                	addi	sp,sp,16
    11ec:	b4eff06f          	j	53a <__riscv_restore_0>
    11f0:	01040513          	addi	a0,s0,16
    11f4:	3da9                	jal	104e <vListInitialise>
    11f6:	02440513          	addi	a0,s0,36
    11fa:	3d91                	jal	104e <vListInitialise>
    11fc:	b7ed                	j	11e6 <xQueueGenericReset+0x80>
    11fe:	67a1                	lui	a5,0x8
    1200:	80078793          	addi	a5,a5,-2048 # 7800 <_data_lma+0x4d48>
    1204:	30079073          	csrw	mstatus,a5
    1208:	00003637          	lui	a2,0x3
    120c:	00003537          	lui	a0,0x3
    1210:	a3460613          	addi	a2,a2,-1484 # 2a34 <memcpy+0x19e>
    1214:	14500593          	li	a1,325
    1218:	9e850513          	addi	a0,a0,-1560 # 29e8 <memcpy+0x152>
    121c:	60c010ef          	jal	ra,2828 <printf>
    1220:	a001                	j	1220 <xQueueGenericReset+0xba>

00001222 <xQueueGenericCreate>:
    1222:	af4ff2ef          	jal	t0,516 <__riscv_save_0>
    1226:	1141                	addi	sp,sp,-16
    1228:	c121                	beqz	a0,1268 <xQueueGenericCreate+0x46>
    122a:	02a5b7b3          	mulhu	a5,a1,a0
    122e:	84aa                	mv	s1,a0
    1230:	ef85                	bnez	a5,1268 <xQueueGenericCreate+0x46>
    1232:	02b50533          	mul	a0,a0,a1
    1236:	fb700793          	li	a5,-73
    123a:	02a7e763          	bltu	a5,a0,1268 <xQueueGenericCreate+0x46>
    123e:	04850513          	addi	a0,a0,72
    1242:	c62e                	sw	a1,12(sp)
    1244:	3cbd                	jal	cc2 <pvPortMalloc>
    1246:	842a                	mv	s0,a0
    1248:	cd01                	beqz	a0,1260 <xQueueGenericCreate+0x3e>
    124a:	45b2                	lw	a1,12(sp)
    124c:	87aa                	mv	a5,a0
    124e:	c199                	beqz	a1,1254 <xQueueGenericCreate+0x32>
    1250:	04850793          	addi	a5,a0,72
    1254:	c02c                	sw	a1,64(s0)
    1256:	c01c                	sw	a5,0(s0)
    1258:	dc44                	sw	s1,60(s0)
    125a:	4585                	li	a1,1
    125c:	8522                	mv	a0,s0
    125e:	3721                	jal	1166 <xQueueGenericReset>
    1260:	8522                	mv	a0,s0
    1262:	0141                	addi	sp,sp,16
    1264:	ad6ff06f          	j	53a <__riscv_restore_0>
    1268:	67a1                	lui	a5,0x8
    126a:	80078793          	addi	a5,a5,-2048 # 7800 <_data_lma+0x4d48>
    126e:	30079073          	csrw	mstatus,a5
    1272:	00003637          	lui	a2,0x3
    1276:	00003537          	lui	a0,0x3
    127a:	a3460613          	addi	a2,a2,-1484 # 2a34 <memcpy+0x19e>
    127e:	1c600593          	li	a1,454
    1282:	9e850513          	addi	a0,a0,-1560 # 29e8 <memcpy+0x152>
    1286:	5a2010ef          	jal	ra,2828 <printf>
    128a:	a001                	j	128a <xQueueGenericCreate+0x68>

0000128c <xQueueReceive>:
    128c:	a62ff2ef          	jal	t0,4ee <__riscv_save_10>
    1290:	1101                	addi	sp,sp,-32
    1292:	c632                	sw	a2,12(sp)
    1294:	e11d                	bnez	a0,12ba <xQueueReceive+0x2e>
    1296:	67a1                	lui	a5,0x8
    1298:	80078793          	addi	a5,a5,-2048 # 7800 <_data_lma+0x4d48>
    129c:	30079073          	csrw	mstatus,a5
    12a0:	00003637          	lui	a2,0x3
    12a4:	00003537          	lui	a0,0x3
    12a8:	a3460613          	addi	a2,a2,-1484 # 2a34 <memcpy+0x19e>
    12ac:	55100593          	li	a1,1361
    12b0:	9e850513          	addi	a0,a0,-1560 # 29e8 <memcpy+0x152>
    12b4:	574010ef          	jal	ra,2828 <printf>
    12b8:	a001                	j	12b8 <xQueueReceive+0x2c>
    12ba:	842a                	mv	s0,a0
    12bc:	89ae                	mv	s3,a1
    12be:	e58d                	bnez	a1,12e8 <xQueueReceive+0x5c>
    12c0:	413c                	lw	a5,64(a0)
    12c2:	c39d                	beqz	a5,12e8 <xQueueReceive+0x5c>
    12c4:	67a1                	lui	a5,0x8
    12c6:	80078793          	addi	a5,a5,-2048 # 7800 <_data_lma+0x4d48>
    12ca:	30079073          	csrw	mstatus,a5
    12ce:	00003637          	lui	a2,0x3
    12d2:	00003537          	lui	a0,0x3
    12d6:	a3460613          	addi	a2,a2,-1484 # 2a34 <memcpy+0x19e>
    12da:	55500593          	li	a1,1365
    12de:	9e850513          	addi	a0,a0,-1560 # 29e8 <memcpy+0x152>
    12e2:	546010ef          	jal	ra,2828 <printf>
    12e6:	a001                	j	12e6 <xQueueReceive+0x5a>
    12e8:	40b000ef          	jal	ra,1ef2 <xTaskGetSchedulerState>
    12ec:	e515                	bnez	a0,1318 <xQueueReceive+0x8c>
    12ee:	47b2                	lw	a5,12(sp)
    12f0:	4901                	li	s2,0
    12f2:	c785                	beqz	a5,131a <xQueueReceive+0x8e>
    12f4:	67a1                	lui	a5,0x8
    12f6:	80078793          	addi	a5,a5,-2048 # 7800 <_data_lma+0x4d48>
    12fa:	30079073          	csrw	mstatus,a5
    12fe:	00003637          	lui	a2,0x3
    1302:	00003537          	lui	a0,0x3
    1306:	a3460613          	addi	a2,a2,-1484 # 2a34 <memcpy+0x19e>
    130a:	55a00593          	li	a1,1370
    130e:	9e850513          	addi	a0,a0,-1560 # 29e8 <memcpy+0x152>
    1312:	516010ef          	jal	ra,2828 <printf>
    1316:	a001                	j	1316 <xQueueReceive+0x8a>
    1318:	4901                	li	s2,0
    131a:	5a7d                	li	s4,-1
    131c:	02440a93          	addi	s5,s0,36
    1320:	e000eb37          	lui	s6,0xe000e
    1324:	6b91                	lui	s7,0x4
    1326:	a095                	j	138a <xQueueReceive+0xfe>
    1328:	47b2                	lw	a5,12(sp)
    132a:	e781                	bnez	a5,1332 <xQueueReceive+0xa6>
    132c:	31c5                	jal	100c <vPortExitCritical>
    132e:	4501                	li	a0,0
    1330:	a059                	j	13b6 <xQueueReceive+0x12a>
    1332:	00091563          	bnez	s2,133c <xQueueReceive+0xb0>
    1336:	0828                	addi	a0,sp,24
    1338:	2d1000ef          	jal	ra,1e08 <vTaskInternalSetTimeOutState>
    133c:	39c1                	jal	100c <vPortExitCritical>
    133e:	29ed                	jal	1838 <vTaskSuspendAll>
    1340:	395d                	jal	ff6 <vPortEnterCritical>
    1342:	04444783          	lbu	a5,68(s0)
    1346:	07e2                	slli	a5,a5,0x18
    1348:	87e1                	srai	a5,a5,0x18
    134a:	01479463          	bne	a5,s4,1352 <xQueueReceive+0xc6>
    134e:	04040223          	sb	zero,68(s0)
    1352:	04544783          	lbu	a5,69(s0)
    1356:	07e2                	slli	a5,a5,0x18
    1358:	87e1                	srai	a5,a5,0x18
    135a:	01479463          	bne	a5,s4,1362 <xQueueReceive+0xd6>
    135e:	040402a3          	sb	zero,69(s0)
    1362:	316d                	jal	100c <vPortExitCritical>
    1364:	006c                	addi	a1,sp,12
    1366:	0828                	addi	a0,sp,24
    1368:	2b7000ef          	jal	ra,1e1e <xTaskCheckForTimeOut>
    136c:	ed21                	bnez	a0,13c4 <xQueueReceive+0x138>
    136e:	8522                	mv	a0,s0
    1370:	3399                	jal	10b6 <prvIsQueueEmpty>
    1372:	c529                	beqz	a0,13bc <xQueueReceive+0x130>
    1374:	45b2                	lw	a1,12(sp)
    1376:	8556                	mv	a0,s5
    1378:	0e7000ef          	jal	ra,1c5e <vTaskPlaceOnEventList>
    137c:	8522                	mv	a0,s0
    137e:	3bad                	jal	10f8 <prvUnlockQueue>
    1380:	2db5                	jal	19fc <xTaskResumeAll>
    1382:	e119                	bnez	a0,1388 <xQueueReceive+0xfc>
    1384:	217b2023          	sw	s7,512(s6) # e000e200 <__freertos_irq_stack_top+0xc0006200>
    1388:	4905                	li	s2,1
    138a:	31b5                	jal	ff6 <vPortEnterCritical>
    138c:	5c04                	lw	s1,56(s0)
    138e:	dcc9                	beqz	s1,1328 <xQueueReceive+0x9c>
    1390:	85ce                	mv	a1,s3
    1392:	8522                	mv	a0,s0
    1394:	14fd                	addi	s1,s1,-1
    1396:	3b2d                	jal	10d0 <prvCopyDataFromQueue>
    1398:	dc04                	sw	s1,56(s0)
    139a:	481c                	lw	a5,16(s0)
    139c:	cb99                	beqz	a5,13b2 <xQueueReceive+0x126>
    139e:	01040513          	addi	a0,s0,16
    13a2:	17b000ef          	jal	ra,1d1c <xTaskRemoveFromEventList>
    13a6:	c511                	beqz	a0,13b2 <xQueueReceive+0x126>
    13a8:	e000e7b7          	lui	a5,0xe000e
    13ac:	6711                	lui	a4,0x4
    13ae:	20e7a023          	sw	a4,512(a5) # e000e200 <__freertos_irq_stack_top+0xc0006200>
    13b2:	39a9                	jal	100c <vPortExitCritical>
    13b4:	4505                	li	a0,1
    13b6:	6105                	addi	sp,sp,32
    13b8:	96eff06f          	j	526 <__riscv_restore_10>
    13bc:	8522                	mv	a0,s0
    13be:	3b2d                	jal	10f8 <prvUnlockQueue>
    13c0:	2d35                	jal	19fc <xTaskResumeAll>
    13c2:	b7d9                	j	1388 <xQueueReceive+0xfc>
    13c4:	8522                	mv	a0,s0
    13c6:	3b0d                	jal	10f8 <prvUnlockQueue>
    13c8:	2d15                	jal	19fc <xTaskResumeAll>
    13ca:	8522                	mv	a0,s0
    13cc:	31ed                	jal	10b6 <prvIsQueueEmpty>
    13ce:	dd4d                	beqz	a0,1388 <xQueueReceive+0xfc>
    13d0:	bfb9                	j	132e <xQueueReceive+0xa2>

000013d2 <vQueueAddToRegistry>:
    13d2:	e515                	bnez	a0,13fe <vQueueAddToRegistry+0x2c>
    13d4:	942ff2ef          	jal	t0,516 <__riscv_save_0>
    13d8:	67a1                	lui	a5,0x8
    13da:	80078793          	addi	a5,a5,-2048 # 7800 <_data_lma+0x4d48>
    13de:	30079073          	csrw	mstatus,a5
    13e2:	00003637          	lui	a2,0x3
    13e6:	6585                	lui	a1,0x1
    13e8:	00003537          	lui	a0,0x3
    13ec:	a3460613          	addi	a2,a2,-1484 # 2a34 <memcpy+0x19e>
    13f0:	ac858593          	addi	a1,a1,-1336 # ac8 <RCC_GetClocksFreq+0xc6>
    13f4:	9e850513          	addi	a0,a0,-1560 # 29e8 <memcpy+0x152>
    13f8:	430010ef          	jal	ra,2828 <printf>
    13fc:	a001                	j	13fc <vQueueAddToRegistry+0x2a>
    13fe:	cd9d                	beqz	a1,143c <vQueueAddToRegistry+0x6a>
    1400:	20003637          	lui	a2,0x20003
    1404:	0ac60693          	addi	a3,a2,172 # 200030ac <xQueueRegistry>
    1408:	4781                	li	a5,0
    140a:	4701                	li	a4,0
    140c:	0ac60613          	addi	a2,a2,172
    1410:	4821                	li	a6,8
    1412:	0046a883          	lw	a7,4(a3)
    1416:	00a89863          	bne	a7,a0,1426 <vQueueAddToRegistry+0x54>
    141a:	00371793          	slli	a5,a4,0x3
    141e:	97b2                	add	a5,a5,a2
    1420:	c38c                	sw	a1,0(a5)
    1422:	c3c8                	sw	a0,4(a5)
    1424:	a821                	j	143c <vQueueAddToRegistry+0x6a>
    1426:	e791                	bnez	a5,1432 <vQueueAddToRegistry+0x60>
    1428:	0006a883          	lw	a7,0(a3)
    142c:	00089363          	bnez	a7,1432 <vQueueAddToRegistry+0x60>
    1430:	87b6                	mv	a5,a3
    1432:	0705                	addi	a4,a4,1
    1434:	06a1                	addi	a3,a3,8
    1436:	fd071ee3          	bne	a4,a6,1412 <vQueueAddToRegistry+0x40>
    143a:	f3fd                	bnez	a5,1420 <vQueueAddToRegistry+0x4e>
    143c:	8082                	ret

0000143e <vQueueWaitForMessageRestricted>:
    143e:	8d8ff2ef          	jal	t0,516 <__riscv_save_0>
    1442:	1141                	addi	sp,sp,-16
    1444:	842a                	mv	s0,a0
    1446:	c62e                	sw	a1,12(sp)
    1448:	c432                	sw	a2,8(sp)
    144a:	3675                	jal	ff6 <vPortEnterCritical>
    144c:	04444783          	lbu	a5,68(s0)
    1450:	577d                	li	a4,-1
    1452:	4622                	lw	a2,8(sp)
    1454:	07e2                	slli	a5,a5,0x18
    1456:	87e1                	srai	a5,a5,0x18
    1458:	45b2                	lw	a1,12(sp)
    145a:	00e79463          	bne	a5,a4,1462 <vQueueWaitForMessageRestricted+0x24>
    145e:	04040223          	sb	zero,68(s0)
    1462:	04544783          	lbu	a5,69(s0)
    1466:	577d                	li	a4,-1
    1468:	07e2                	slli	a5,a5,0x18
    146a:	87e1                	srai	a5,a5,0x18
    146c:	00e79463          	bne	a5,a4,1474 <vQueueWaitForMessageRestricted+0x36>
    1470:	040402a3          	sb	zero,69(s0)
    1474:	c632                	sw	a2,12(sp)
    1476:	c42e                	sw	a1,8(sp)
    1478:	3e51                	jal	100c <vPortExitCritical>
    147a:	5c1c                	lw	a5,56(s0)
    147c:	45a2                	lw	a1,8(sp)
    147e:	4632                	lw	a2,12(sp)
    1480:	e789                	bnez	a5,148a <vQueueWaitForMessageRestricted+0x4c>
    1482:	02440513          	addi	a0,s0,36
    1486:	021000ef          	jal	ra,1ca6 <vTaskPlaceOnEventListRestricted>
    148a:	8522                	mv	a0,s0
    148c:	31b5                	jal	10f8 <prvUnlockQueue>
    148e:	0141                	addi	sp,sp,16
    1490:	8aaff06f          	j	53a <__riscv_restore_0>

00001494 <prvResetNextTaskUnblockTime>:
    1494:	20000737          	lui	a4,0x20000
    1498:	05c70713          	addi	a4,a4,92 # 2000005c <pxDelayedTaskList>
    149c:	431c                	lw	a5,0(a4)
    149e:	4394                	lw	a3,0(a5)
    14a0:	200007b7          	lui	a5,0x20000
    14a4:	07c78793          	addi	a5,a5,124 # 2000007c <xNextTaskUnblockTime>
    14a8:	e681                	bnez	a3,14b0 <prvResetNextTaskUnblockTime+0x1c>
    14aa:	577d                	li	a4,-1
    14ac:	c398                	sw	a4,0(a5)
    14ae:	8082                	ret
    14b0:	4318                	lw	a4,0(a4)
    14b2:	4758                	lw	a4,12(a4)
    14b4:	4318                	lw	a4,0(a4)
    14b6:	bfdd                	j	14ac <prvResetNextTaskUnblockTime+0x18>

000014b8 <prvAddCurrentTaskToDelayedList>:
    14b8:	844ff2ef          	jal	t0,4fc <__riscv_save_4>
    14bc:	20000937          	lui	s2,0x20000
    14c0:	200007b7          	lui	a5,0x20000
    14c4:	05890493          	addi	s1,s2,88 # 20000058 <pxCurrentTCB>
    14c8:	08c7a983          	lw	s3,140(a5) # 2000008c <xTickCount>
    14cc:	842a                	mv	s0,a0
    14ce:	409c                	lw	a5,0(s1)
    14d0:	4088                	lw	a0,0(s1)
    14d2:	1141                	addi	sp,sp,-16
    14d4:	040788a3          	sb	zero,81(a5)
    14d8:	0511                	addi	a0,a0,4
    14da:	c62e                	sw	a1,12(sp)
    14dc:	3e6d                	jal	1096 <uxListRemove>
    14de:	577d                	li	a4,-1
    14e0:	05890793          	addi	a5,s2,88
    14e4:	45b2                	lw	a1,12(sp)
    14e6:	02e41c63          	bne	s0,a4,151e <prvAddCurrentTaskToDelayedList+0x66>
    14ea:	c995                	beqz	a1,151e <prvAddCurrentTaskToDelayedList+0x66>
    14ec:	200037b7          	lui	a5,0x20003
    14f0:	25478793          	addi	a5,a5,596 # 20003254 <xSuspendedTaskList>
    14f4:	4094                	lw	a3,0(s1)
    14f6:	43d8                	lw	a4,4(a5)
    14f8:	c698                	sw	a4,8(a3)
    14fa:	4710                	lw	a2,8(a4)
    14fc:	4094                	lw	a3,0(s1)
    14fe:	c6d0                	sw	a2,12(a3)
    1500:	4094                	lw	a3,0(s1)
    1502:	4710                	lw	a2,8(a4)
    1504:	0691                	addi	a3,a3,4
    1506:	c254                	sw	a3,4(a2)
    1508:	4094                	lw	a3,0(s1)
    150a:	0691                	addi	a3,a3,4
    150c:	c714                	sw	a3,8(a4)
    150e:	4098                	lw	a4,0(s1)
    1510:	cb5c                	sw	a5,20(a4)
    1512:	4398                	lw	a4,0(a5)
    1514:	0705                	addi	a4,a4,1
    1516:	c398                	sw	a4,0(a5)
    1518:	0141                	addi	sp,sp,16
    151a:	816ff06f          	j	530 <__riscv_restore_4>
    151e:	4398                	lw	a4,0(a5)
    1520:	944e                	add	s0,s0,s3
    1522:	c340                	sw	s0,4(a4)
    1524:	01347a63          	bgeu	s0,s3,1538 <prvAddCurrentTaskToDelayedList+0x80>
    1528:	20000737          	lui	a4,0x20000
    152c:	06072503          	lw	a0,96(a4) # 20000060 <pxOverflowDelayedTaskList>
    1530:	438c                	lw	a1,0(a5)
    1532:	0591                	addi	a1,a1,4
    1534:	3e15                	jal	1068 <vListInsert>
    1536:	b7cd                	j	1518 <prvAddCurrentTaskToDelayedList+0x60>
    1538:	20000737          	lui	a4,0x20000
    153c:	05c72503          	lw	a0,92(a4) # 2000005c <pxDelayedTaskList>
    1540:	438c                	lw	a1,0(a5)
    1542:	0591                	addi	a1,a1,4
    1544:	3615                	jal	1068 <vListInsert>
    1546:	200007b7          	lui	a5,0x20000
    154a:	07c78793          	addi	a5,a5,124 # 2000007c <xNextTaskUnblockTime>
    154e:	4398                	lw	a4,0(a5)
    1550:	fce474e3          	bgeu	s0,a4,1518 <prvAddCurrentTaskToDelayedList+0x60>
    1554:	c380                	sw	s0,0(a5)
    1556:	b7c9                	j	1518 <prvAddCurrentTaskToDelayedList+0x60>

00001558 <prvIdleTask>:
    1558:	fa5fe2ef          	jal	t0,4fc <__riscv_save_4>
    155c:	20003437          	lui	s0,0x20003
    1560:	200009b7          	lui	s3,0x20000
    1564:	26840413          	addi	s0,s0,616 # 20003268 <xTasksWaitingTermination>
    1568:	20000a37          	lui	s4,0x20000
    156c:	06898493          	addi	s1,s3,104 # 20000068 <uxDeletedTasksWaitingCleanUp>
    1570:	409c                	lw	a5,0(s1)
    1572:	dfed                	beqz	a5,156c <prvIdleTask+0x14>
    1574:	3449                	jal	ff6 <vPortEnterCritical>
    1576:	445c                	lw	a5,12(s0)
    1578:	00c7a903          	lw	s2,12(a5)
    157c:	00490513          	addi	a0,s2,4
    1580:	3e19                	jal	1096 <uxListRemove>
    1582:	064a0713          	addi	a4,s4,100 # 20000064 <uxCurrentNumberOfTasks>
    1586:	431c                	lw	a5,0(a4)
    1588:	17fd                	addi	a5,a5,-1
    158a:	c31c                	sw	a5,0(a4)
    158c:	409c                	lw	a5,0(s1)
    158e:	17fd                	addi	a5,a5,-1
    1590:	c09c                	sw	a5,0(s1)
    1592:	3cad                	jal	100c <vPortExitCritical>
    1594:	03092503          	lw	a0,48(s2)
    1598:	8b5ff0ef          	jal	ra,e4c <vPortFree>
    159c:	854a                	mv	a0,s2
    159e:	8afff0ef          	jal	ra,e4c <vPortFree>
    15a2:	b7e9                	j	156c <prvIdleTask+0x14>

000015a4 <xTaskCreate>:
    15a4:	f4bfe2ef          	jal	t0,4ee <__riscv_save_10>
    15a8:	00261913          	slli	s2,a2,0x2
    15ac:	8aaa                	mv	s5,a0
    15ae:	854a                	mv	a0,s2
    15b0:	8a2e                	mv	s4,a1
    15b2:	8b36                	mv	s6,a3
    15b4:	8bba                	mv	s7,a4
    15b6:	89be                	mv	s3,a5
    15b8:	f0aff0ef          	jal	ra,cc2 <pvPortMalloc>
    15bc:	c11d                	beqz	a0,15e2 <xTaskCreate+0x3e>
    15be:	84aa                	mv	s1,a0
    15c0:	05400513          	li	a0,84
    15c4:	efeff0ef          	jal	ra,cc2 <pvPortMalloc>
    15c8:	842a                	mv	s0,a0
    15ca:	c909                	beqz	a0,15dc <xTaskCreate+0x38>
    15cc:	d904                	sw	s1,48(a0)
    15ce:	4781                	li	a5,0
    15d0:	46c1                	li	a3,16
    15d2:	000a1a63          	bnez	s4,15e6 <xTaskCreate+0x42>
    15d6:	02050a23          	sb	zero,52(a0)
    15da:	a025                	j	1602 <xTaskCreate+0x5e>
    15dc:	8526                	mv	a0,s1
    15de:	86fff0ef          	jal	ra,e4c <vPortFree>
    15e2:	557d                	li	a0,-1
    15e4:	a265                	j	178c <xTaskCreate+0x1e8>
    15e6:	00fa0733          	add	a4,s4,a5
    15ea:	00070703          	lb	a4,0(a4)
    15ee:	00f40633          	add	a2,s0,a5
    15f2:	02e60a23          	sb	a4,52(a2)
    15f6:	c701                	beqz	a4,15fe <xTaskCreate+0x5a>
    15f8:	0785                	addi	a5,a5,1
    15fa:	fed796e3          	bne	a5,a3,15e6 <xTaskCreate+0x42>
    15fe:	040401a3          	sb	zero,67(s0)
    1602:	47b9                	li	a5,14
    1604:	0377f463          	bgeu	a5,s7,162c <xTaskCreate+0x88>
    1608:	67a1                	lui	a5,0x8
    160a:	80078793          	addi	a5,a5,-2048 # 7800 <_data_lma+0x4d48>
    160e:	30079073          	csrw	mstatus,a5
    1612:	00003637          	lui	a2,0x3
    1616:	00003537          	lui	a0,0x3
    161a:	a4860613          	addi	a2,a2,-1464 # 2a48 <memcpy+0x1b2>
    161e:	39700593          	li	a1,919
    1622:	9e850513          	addi	a0,a0,-1560 # 29e8 <memcpy+0x152>
    1626:	202010ef          	jal	ra,2828 <printf>
    162a:	a001                	j	162a <xTaskCreate+0x86>
    162c:	00440a13          	addi	s4,s0,4
    1630:	8552                	mv	a0,s4
    1632:	03742623          	sw	s7,44(s0)
    1636:	05742223          	sw	s7,68(s0)
    163a:	04042423          	sw	zero,72(s0)
    163e:	a25ff0ef          	jal	ra,1062 <vListInitialiseItem>
    1642:	01840513          	addi	a0,s0,24
    1646:	a1dff0ef          	jal	ra,1062 <vListInitialiseItem>
    164a:	473d                	li	a4,15
    164c:	ffc90513          	addi	a0,s2,-4
    1650:	41770733          	sub	a4,a4,s7
    1654:	9526                	add	a0,a0,s1
    1656:	c800                	sw	s0,16(s0)
    1658:	cc18                	sw	a4,24(s0)
    165a:	d040                	sw	s0,36(s0)
    165c:	04040623          	sb	zero,76(s0)
    1660:	040406a3          	sb	zero,77(s0)
    1664:	04040723          	sb	zero,78(s0)
    1668:	040407a3          	sb	zero,79(s0)
    166c:	04040823          	sb	zero,80(s0)
    1670:	040408a3          	sb	zero,81(s0)
    1674:	865a                	mv	a2,s6
    1676:	85d6                	mv	a1,s5
    1678:	9941                	andi	a0,a0,-16
    167a:	d87fe0ef          	jal	ra,400 <pxPortInitialiseStack>
    167e:	c008                	sw	a0,0(s0)
    1680:	00098463          	beqz	s3,1688 <xTaskCreate+0xe4>
    1684:	0089a023          	sw	s0,0(s3)
    1688:	96fff0ef          	jal	ra,ff6 <vPortEnterCritical>
    168c:	200007b7          	lui	a5,0x20000
    1690:	06478793          	addi	a5,a5,100 # 20000064 <uxCurrentNumberOfTasks>
    1694:	4398                	lw	a4,0(a5)
    1696:	200004b7          	lui	s1,0x20000
    169a:	200039b7          	lui	s3,0x20003
    169e:	0705                	addi	a4,a4,1
    16a0:	c398                	sw	a4,0(a5)
    16a2:	05848713          	addi	a4,s1,88 # 20000058 <pxCurrentTCB>
    16a6:	4318                	lw	a4,0(a4)
    16a8:	05848493          	addi	s1,s1,88
    16ac:	0ec98913          	addi	s2,s3,236 # 200030ec <pxReadyTasksLists>
    16b0:	0e071063          	bnez	a4,1790 <xTaskCreate+0x1ec>
    16b4:	c080                	sw	s0,0(s1)
    16b6:	4398                	lw	a4,0(a5)
    16b8:	4785                	li	a5,1
    16ba:	06f71663          	bne	a4,a5,1726 <xTaskCreate+0x182>
    16be:	0ec98993          	addi	s3,s3,236
    16c2:	12c90a93          	addi	s5,s2,300
    16c6:	854e                	mv	a0,s3
    16c8:	09d1                	addi	s3,s3,20
    16ca:	985ff0ef          	jal	ra,104e <vListInitialise>
    16ce:	ff3a9ce3          	bne	s5,s3,16c6 <xTaskCreate+0x122>
    16d2:	20003537          	lui	a0,0x20003
    16d6:	21850a93          	addi	s5,a0,536 # 20003218 <xDelayedTaskList1>
    16da:	21850513          	addi	a0,a0,536
    16de:	971ff0ef          	jal	ra,104e <vListInitialise>
    16e2:	20003537          	lui	a0,0x20003
    16e6:	22c50993          	addi	s3,a0,556 # 2000322c <xDelayedTaskList2>
    16ea:	22c50513          	addi	a0,a0,556
    16ee:	961ff0ef          	jal	ra,104e <vListInitialise>
    16f2:	20003537          	lui	a0,0x20003
    16f6:	24050513          	addi	a0,a0,576 # 20003240 <xPendingReadyList>
    16fa:	955ff0ef          	jal	ra,104e <vListInitialise>
    16fe:	20003537          	lui	a0,0x20003
    1702:	26850513          	addi	a0,a0,616 # 20003268 <xTasksWaitingTermination>
    1706:	949ff0ef          	jal	ra,104e <vListInitialise>
    170a:	20003537          	lui	a0,0x20003
    170e:	25450513          	addi	a0,a0,596 # 20003254 <xSuspendedTaskList>
    1712:	93dff0ef          	jal	ra,104e <vListInitialise>
    1716:	200007b7          	lui	a5,0x20000
    171a:	0557ae23          	sw	s5,92(a5) # 2000005c <pxDelayedTaskList>
    171e:	200007b7          	lui	a5,0x20000
    1722:	0737a023          	sw	s3,96(a5) # 20000060 <pxOverflowDelayedTaskList>
    1726:	200007b7          	lui	a5,0x20000
    172a:	07078793          	addi	a5,a5,112 # 20000070 <uxTaskNumber>
    172e:	4398                	lw	a4,0(a5)
    1730:	0705                	addi	a4,a4,1
    1732:	c398                	sw	a4,0(a5)
    1734:	20000737          	lui	a4,0x20000
    1738:	07470713          	addi	a4,a4,116 # 20000074 <uxTopReadyPriority>
    173c:	545c                	lw	a5,44(s0)
    173e:	4314                	lw	a3,0(a4)
    1740:	00f6f363          	bgeu	a3,a5,1746 <xTaskCreate+0x1a2>
    1744:	c31c                	sw	a5,0(a4)
    1746:	4751                	li	a4,20
    1748:	02e787b3          	mul	a5,a5,a4
    174c:	97ca                	add	a5,a5,s2
    174e:	43d8                	lw	a4,4(a5)
    1750:	4714                	lw	a3,8(a4)
    1752:	c418                	sw	a4,8(s0)
    1754:	c454                	sw	a3,12(s0)
    1756:	4714                	lw	a3,8(a4)
    1758:	0146a223          	sw	s4,4(a3)
    175c:	01472423          	sw	s4,8(a4)
    1760:	4398                	lw	a4,0(a5)
    1762:	c85c                	sw	a5,20(s0)
    1764:	0705                	addi	a4,a4,1
    1766:	c398                	sw	a4,0(a5)
    1768:	8a5ff0ef          	jal	ra,100c <vPortExitCritical>
    176c:	200007b7          	lui	a5,0x20000
    1770:	0887a783          	lw	a5,136(a5) # 20000088 <xSchedulerRunning>
    1774:	4505                	li	a0,1
    1776:	cb99                	beqz	a5,178c <xTaskCreate+0x1e8>
    1778:	409c                	lw	a5,0(s1)
    177a:	57d8                	lw	a4,44(a5)
    177c:	545c                	lw	a5,44(s0)
    177e:	00f77763          	bgeu	a4,a5,178c <xTaskCreate+0x1e8>
    1782:	e000e7b7          	lui	a5,0xe000e
    1786:	6711                	lui	a4,0x4
    1788:	20e7a023          	sw	a4,512(a5) # e000e200 <__freertos_irq_stack_top+0xc0006200>
    178c:	d9bfe06f          	j	526 <__riscv_restore_10>
    1790:	200007b7          	lui	a5,0x20000
    1794:	0887a783          	lw	a5,136(a5) # 20000088 <xSchedulerRunning>
    1798:	f7d9                	bnez	a5,1726 <xTaskCreate+0x182>
    179a:	409c                	lw	a5,0(s1)
    179c:	57d8                	lw	a4,44(a5)
    179e:	545c                	lw	a5,44(s0)
    17a0:	f8e7e3e3          	bltu	a5,a4,1726 <xTaskCreate+0x182>
    17a4:	c080                	sw	s0,0(s1)
    17a6:	b741                	j	1726 <xTaskCreate+0x182>

000017a8 <vTaskStartScheduler>:
    17a8:	d6ffe2ef          	jal	t0,516 <__riscv_save_0>
    17ac:	200007b7          	lui	a5,0x20000
    17b0:	000035b7          	lui	a1,0x3
    17b4:	00001537          	lui	a0,0x1
    17b8:	07878793          	addi	a5,a5,120 # 20000078 <xIdleTaskHandle>
    17bc:	4701                	li	a4,0
    17be:	4681                	li	a3,0
    17c0:	10000613          	li	a2,256
    17c4:	a5c58593          	addi	a1,a1,-1444 # 2a5c <memcpy+0x1c6>
    17c8:	55850513          	addi	a0,a0,1368 # 1558 <prvIdleTask>
    17cc:	3be1                	jal	15a4 <xTaskCreate>
    17ce:	4405                	li	s0,1
    17d0:	02851e63          	bne	a0,s0,180c <vTaskStartScheduler+0x64>
    17d4:	20b000ef          	jal	ra,21de <xTimerCreateTimerTask>
    17d8:	02851a63          	bne	a0,s0,180c <vTaskStartScheduler+0x64>
    17dc:	67a1                	lui	a5,0x8
    17de:	80078793          	addi	a5,a5,-2048 # 7800 <_data_lma+0x4d48>
    17e2:	30079073          	csrw	mstatus,a5
    17e6:	200007b7          	lui	a5,0x20000
    17ea:	577d                	li	a4,-1
    17ec:	06e7ae23          	sw	a4,124(a5) # 2000007c <xNextTaskUnblockTime>
    17f0:	200007b7          	lui	a5,0x20000
    17f4:	08a7a423          	sw	a0,136(a5) # 20000088 <xSchedulerRunning>
    17f8:	200007b7          	lui	a5,0x20000
    17fc:	0807a623          	sw	zero,140(a5) # 2000008c <xTickCount>
    1800:	f30ff0ef          	jal	ra,f30 <xPortStartScheduler>
    1804:	80c1a783          	lw	a5,-2036(gp) # 2000001c <uxTopUsedPriority>
    1808:	d33fe06f          	j	53a <__riscv_restore_0>
    180c:	57fd                	li	a5,-1
    180e:	fef51be3          	bne	a0,a5,1804 <vTaskStartScheduler+0x5c>
    1812:	67a1                	lui	a5,0x8
    1814:	80078793          	addi	a5,a5,-2048 # 7800 <_data_lma+0x4d48>
    1818:	30079073          	csrw	mstatus,a5
    181c:	00003637          	lui	a2,0x3
    1820:	6585                	lui	a1,0x1
    1822:	00003537          	lui	a0,0x3
    1826:	a4860613          	addi	a2,a2,-1464 # 2a48 <memcpy+0x1b2>
    182a:	84058593          	addi	a1,a1,-1984 # 840 <TIM8_CC_IRQHandler>
    182e:	9e850513          	addi	a0,a0,-1560 # 29e8 <memcpy+0x152>
    1832:	7f7000ef          	jal	ra,2828 <printf>
    1836:	a001                	j	1836 <vTaskStartScheduler+0x8e>

00001838 <vTaskSuspendAll>:
    1838:	200007b7          	lui	a5,0x20000
    183c:	06c78793          	addi	a5,a5,108 # 2000006c <uxSchedulerSuspended>
    1840:	4398                	lw	a4,0(a5)
    1842:	0705                	addi	a4,a4,1
    1844:	c398                	sw	a4,0(a5)
    1846:	8082                	ret

00001848 <xTaskGetTickCount>:
    1848:	200007b7          	lui	a5,0x20000
    184c:	08c7a503          	lw	a0,140(a5) # 2000008c <xTickCount>
    1850:	8082                	ret

00001852 <xTaskIncrementTick>:
    1852:	200007b7          	lui	a5,0x20000
    1856:	06c7a783          	lw	a5,108(a5) # 2000006c <uxSchedulerSuspended>
    185a:	18079863          	bnez	a5,19ea <xTaskIncrementTick+0x198>
    185e:	cb9fe2ef          	jal	t0,516 <__riscv_save_0>
    1862:	200007b7          	lui	a5,0x20000
    1866:	08c78793          	addi	a5,a5,140 # 2000008c <xTickCount>
    186a:	4380                	lw	s0,0(a5)
    186c:	0405                	addi	s0,s0,1
    186e:	c380                	sw	s0,0(a5)
    1870:	e839                	bnez	s0,18c6 <xTaskIncrementTick+0x74>
    1872:	200007b7          	lui	a5,0x20000
    1876:	05c78793          	addi	a5,a5,92 # 2000005c <pxDelayedTaskList>
    187a:	4398                	lw	a4,0(a5)
    187c:	4318                	lw	a4,0(a4)
    187e:	c705                	beqz	a4,18a6 <xTaskIncrementTick+0x54>
    1880:	67a1                	lui	a5,0x8
    1882:	80078793          	addi	a5,a5,-2048 # 7800 <_data_lma+0x4d48>
    1886:	30079073          	csrw	mstatus,a5
    188a:	00003637          	lui	a2,0x3
    188e:	6585                	lui	a1,0x1
    1890:	00003537          	lui	a0,0x3
    1894:	a4860613          	addi	a2,a2,-1464 # 2a48 <memcpy+0x1b2>
    1898:	ac758593          	addi	a1,a1,-1337 # ac7 <RCC_GetClocksFreq+0xc5>
    189c:	9e850513          	addi	a0,a0,-1560 # 29e8 <memcpy+0x152>
    18a0:	789000ef          	jal	ra,2828 <printf>
    18a4:	a001                	j	18a4 <xTaskIncrementTick+0x52>
    18a6:	20000737          	lui	a4,0x20000
    18aa:	06070713          	addi	a4,a4,96 # 20000060 <pxOverflowDelayedTaskList>
    18ae:	4394                	lw	a3,0(a5)
    18b0:	4310                	lw	a2,0(a4)
    18b2:	c390                	sw	a2,0(a5)
    18b4:	200007b7          	lui	a5,0x20000
    18b8:	c314                	sw	a3,0(a4)
    18ba:	08078793          	addi	a5,a5,128 # 20000080 <xNumOfOverflows>
    18be:	4398                	lw	a4,0(a5)
    18c0:	0705                	addi	a4,a4,1
    18c2:	c398                	sw	a4,0(a5)
    18c4:	3ec1                	jal	1494 <prvResetNextTaskUnblockTime>
    18c6:	20000637          	lui	a2,0x20000
    18ca:	07c60793          	addi	a5,a2,124 # 2000007c <xNextTaskUnblockTime>
    18ce:	439c                	lw	a5,0(a5)
    18d0:	20003737          	lui	a4,0x20003
    18d4:	200005b7          	lui	a1,0x20000
    18d8:	07c60613          	addi	a2,a2,124
    18dc:	0ec70713          	addi	a4,a4,236 # 200030ec <pxReadyTasksLists>
    18e0:	05858593          	addi	a1,a1,88 # 20000058 <pxCurrentTCB>
    18e4:	4501                	li	a0,0
    18e6:	02f47563          	bgeu	s0,a5,1910 <xTaskIncrementTick+0xbe>
    18ea:	419c                	lw	a5,0(a1)
    18ec:	46d1                	li	a3,20
    18ee:	57dc                	lw	a5,44(a5)
    18f0:	02d787b3          	mul	a5,a5,a3
    18f4:	973e                	add	a4,a4,a5
    18f6:	4318                	lw	a4,0(a4)
    18f8:	4785                	li	a5,1
    18fa:	00e7f363          	bgeu	a5,a4,1900 <xTaskIncrementTick+0xae>
    18fe:	4505                	li	a0,1
    1900:	200007b7          	lui	a5,0x20000
    1904:	0907a783          	lw	a5,144(a5) # 20000090 <xYieldPending>
    1908:	c391                	beqz	a5,190c <xTaskIncrementTick+0xba>
    190a:	4505                	li	a0,1
    190c:	c2ffe06f          	j	53a <__riscv_restore_0>
    1910:	20000e37          	lui	t3,0x20000
    1914:	20000eb7          	lui	t4,0x20000
    1918:	4f51                	li	t5,20
    191a:	05ce0793          	addi	a5,t3,92 # 2000005c <pxDelayedTaskList>
    191e:	4394                	lw	a3,0(a5)
    1920:	4294                	lw	a3,0(a3)
    1922:	e681                	bnez	a3,192a <xTaskIncrementTick+0xd8>
    1924:	57fd                	li	a5,-1
    1926:	c21c                	sw	a5,0(a2)
    1928:	b7c9                	j	18ea <xTaskIncrementTick+0x98>
    192a:	439c                	lw	a5,0(a5)
    192c:	47dc                	lw	a5,12(a5)
    192e:	47dc                	lw	a5,12(a5)
    1930:	43d4                	lw	a3,4(a5)
    1932:	00d47463          	bgeu	s0,a3,193a <xTaskIncrementTick+0xe8>
    1936:	c214                	sw	a3,0(a2)
    1938:	bf4d                	j	18ea <xTaskIncrementTick+0x98>
    193a:	0087a883          	lw	a7,8(a5)
    193e:	00c7a803          	lw	a6,12(a5)
    1942:	4bd4                	lw	a3,20(a5)
    1944:	00478313          	addi	t1,a5,4
    1948:	0108a423          	sw	a6,8(a7)
    194c:	01182223          	sw	a7,4(a6)
    1950:	0046a883          	lw	a7,4(a3)
    1954:	00689463          	bne	a7,t1,195c <xTaskIncrementTick+0x10a>
    1958:	0106a223          	sw	a6,4(a3)
    195c:	0006a803          	lw	a6,0(a3)
    1960:	0007aa23          	sw	zero,20(a5)
    1964:	187d                	addi	a6,a6,-1
    1966:	0106a023          	sw	a6,0(a3)
    196a:	5794                	lw	a3,40(a5)
    196c:	ca95                	beqz	a3,19a0 <xTaskIncrementTick+0x14e>
    196e:	01c7a803          	lw	a6,28(a5)
    1972:	0207a883          	lw	a7,32(a5)
    1976:	0046af83          	lw	t6,4(a3)
    197a:	01182423          	sw	a7,8(a6)
    197e:	0207a883          	lw	a7,32(a5)
    1982:	0108a223          	sw	a6,4(a7)
    1986:	01878813          	addi	a6,a5,24
    198a:	010f9463          	bne	t6,a6,1992 <xTaskIncrementTick+0x140>
    198e:	0116a223          	sw	a7,4(a3)
    1992:	0006a803          	lw	a6,0(a3)
    1996:	0207a423          	sw	zero,40(a5)
    199a:	187d                	addi	a6,a6,-1
    199c:	0106a023          	sw	a6,0(a3)
    19a0:	074e8693          	addi	a3,t4,116 # 20000074 <uxTopReadyPriority>
    19a4:	02c7a803          	lw	a6,44(a5)
    19a8:	0006a883          	lw	a7,0(a3)
    19ac:	0108f463          	bgeu	a7,a6,19b4 <xTaskIncrementTick+0x162>
    19b0:	0106a023          	sw	a6,0(a3)
    19b4:	03e806b3          	mul	a3,a6,t5
    19b8:	96ba                	add	a3,a3,a4
    19ba:	0046a883          	lw	a7,4(a3)
    19be:	0088af83          	lw	t6,8(a7)
    19c2:	0117a423          	sw	a7,8(a5)
    19c6:	01f7a623          	sw	t6,12(a5)
    19ca:	0088af83          	lw	t6,8(a7)
    19ce:	006fa223          	sw	t1,4(t6)
    19d2:	0068a423          	sw	t1,8(a7)
    19d6:	cbd4                	sw	a3,20(a5)
    19d8:	429c                	lw	a5,0(a3)
    19da:	0785                	addi	a5,a5,1
    19dc:	c29c                	sw	a5,0(a3)
    19de:	419c                	lw	a5,0(a1)
    19e0:	57dc                	lw	a5,44(a5)
    19e2:	f2f86ce3          	bltu	a6,a5,191a <xTaskIncrementTick+0xc8>
    19e6:	4505                	li	a0,1
    19e8:	bf0d                	j	191a <xTaskIncrementTick+0xc8>
    19ea:	200007b7          	lui	a5,0x20000
    19ee:	08478793          	addi	a5,a5,132 # 20000084 <xPendedTicks>
    19f2:	4398                	lw	a4,0(a5)
    19f4:	4501                	li	a0,0
    19f6:	0705                	addi	a4,a4,1
    19f8:	c398                	sw	a4,0(a5)
    19fa:	8082                	ret

000019fc <xTaskResumeAll>:
    19fc:	b01fe2ef          	jal	t0,4fc <__riscv_save_4>
    1a00:	20000437          	lui	s0,0x20000
    1a04:	06c40413          	addi	s0,s0,108 # 2000006c <uxSchedulerSuspended>
    1a08:	401c                	lw	a5,0(s0)
    1a0a:	1141                	addi	sp,sp,-16
    1a0c:	e785                	bnez	a5,1a34 <xTaskResumeAll+0x38>
    1a0e:	67a1                	lui	a5,0x8
    1a10:	80078793          	addi	a5,a5,-2048 # 7800 <_data_lma+0x4d48>
    1a14:	30079073          	csrw	mstatus,a5
    1a18:	00003637          	lui	a2,0x3
    1a1c:	6585                	lui	a1,0x1
    1a1e:	00003537          	lui	a0,0x3
    1a22:	a4860613          	addi	a2,a2,-1464 # 2a48 <memcpy+0x1b2>
    1a26:	8b358593          	addi	a1,a1,-1869 # 8b3 <handle_reset+0x1f>
    1a2a:	9e850513          	addi	a0,a0,-1560 # 29e8 <memcpy+0x152>
    1a2e:	5fb000ef          	jal	ra,2828 <printf>
    1a32:	a001                	j	1a32 <xTaskResumeAll+0x36>
    1a34:	dc2ff0ef          	jal	ra,ff6 <vPortEnterCritical>
    1a38:	401c                	lw	a5,0(s0)
    1a3a:	17fd                	addi	a5,a5,-1
    1a3c:	c01c                	sw	a5,0(s0)
    1a3e:	401c                	lw	a5,0(s0)
    1a40:	cb89                	beqz	a5,1a52 <xTaskResumeAll+0x56>
    1a42:	4501                	li	a0,0
    1a44:	c62a                	sw	a0,12(sp)
    1a46:	dc6ff0ef          	jal	ra,100c <vPortExitCritical>
    1a4a:	4532                	lw	a0,12(sp)
    1a4c:	0141                	addi	sp,sp,16
    1a4e:	ae3fe06f          	j	530 <__riscv_restore_4>
    1a52:	200007b7          	lui	a5,0x20000
    1a56:	0647a783          	lw	a5,100(a5) # 20000064 <uxCurrentNumberOfTasks>
    1a5a:	d7e5                	beqz	a5,1a42 <xTaskResumeAll+0x46>
    1a5c:	200036b7          	lui	a3,0x20003
    1a60:	20003537          	lui	a0,0x20003
    1a64:	4781                	li	a5,0
    1a66:	24068693          	addi	a3,a3,576 # 20003240 <xPendingReadyList>
    1a6a:	20000f37          	lui	t5,0x20000
    1a6e:	0ec50513          	addi	a0,a0,236 # 200030ec <pxReadyTasksLists>
    1a72:	48d1                	li	a7,20
    1a74:	20000337          	lui	t1,0x20000
    1a78:	20000e37          	lui	t3,0x20000
    1a7c:	4e85                	li	t4,1
    1a7e:	a859                	j	1b14 <xTaskResumeAll+0x118>
    1a80:	46dc                	lw	a5,12(a3)
    1a82:	47dc                	lw	a5,12(a5)
    1a84:	4fcc                	lw	a1,28(a5)
    1a86:	5390                	lw	a2,32(a5)
    1a88:	5798                	lw	a4,40(a5)
    1a8a:	c590                	sw	a2,8(a1)
    1a8c:	0207a803          	lw	a6,32(a5)
    1a90:	00b82223          	sw	a1,4(a6)
    1a94:	00472803          	lw	a6,4(a4)
    1a98:	01878593          	addi	a1,a5,24
    1a9c:	00b81363          	bne	a6,a1,1aa2 <xTaskResumeAll+0xa6>
    1aa0:	c350                	sw	a2,4(a4)
    1aa2:	4310                	lw	a2,0(a4)
    1aa4:	0207a423          	sw	zero,40(a5)
    1aa8:	167d                	addi	a2,a2,-1
    1aaa:	c310                	sw	a2,0(a4)
    1aac:	478c                	lw	a1,8(a5)
    1aae:	47d0                	lw	a2,12(a5)
    1ab0:	4bd8                	lw	a4,20(a5)
    1ab2:	00478813          	addi	a6,a5,4
    1ab6:	c590                	sw	a2,8(a1)
    1ab8:	c24c                	sw	a1,4(a2)
    1aba:	434c                	lw	a1,4(a4)
    1abc:	01059363          	bne	a1,a6,1ac2 <xTaskResumeAll+0xc6>
    1ac0:	c350                	sw	a2,4(a4)
    1ac2:	4310                	lw	a2,0(a4)
    1ac4:	0007aa23          	sw	zero,20(a5)
    1ac8:	167d                	addi	a2,a2,-1
    1aca:	c310                	sw	a2,0(a4)
    1acc:	074f0713          	addi	a4,t5,116 # 20000074 <uxTopReadyPriority>
    1ad0:	57d0                	lw	a2,44(a5)
    1ad2:	430c                	lw	a1,0(a4)
    1ad4:	00c5f363          	bgeu	a1,a2,1ada <xTaskResumeAll+0xde>
    1ad8:	c310                	sw	a2,0(a4)
    1ada:	03160733          	mul	a4,a2,a7
    1ade:	972a                	add	a4,a4,a0
    1ae0:	434c                	lw	a1,4(a4)
    1ae2:	0085af83          	lw	t6,8(a1)
    1ae6:	c78c                	sw	a1,8(a5)
    1ae8:	01f7a623          	sw	t6,12(a5)
    1aec:	0085af83          	lw	t6,8(a1)
    1af0:	010fa223          	sw	a6,4(t6)
    1af4:	0105a423          	sw	a6,8(a1)
    1af8:	430c                	lw	a1,0(a4)
    1afa:	cbd8                	sw	a4,20(a5)
    1afc:	0585                	addi	a1,a1,1
    1afe:	c30c                	sw	a1,0(a4)
    1b00:	05830713          	addi	a4,t1,88 # 20000058 <pxCurrentTCB>
    1b04:	4318                	lw	a4,0(a4)
    1b06:	5758                	lw	a4,44(a4)
    1b08:	00e66663          	bltu	a2,a4,1b14 <xTaskResumeAll+0x118>
    1b0c:	090e0713          	addi	a4,t3,144 # 20000090 <xYieldPending>
    1b10:	01d72023          	sw	t4,0(a4)
    1b14:	4298                	lw	a4,0(a3)
    1b16:	f72d                	bnez	a4,1a80 <xTaskResumeAll+0x84>
    1b18:	c399                	beqz	a5,1b1e <xTaskResumeAll+0x122>
    1b1a:	97bff0ef          	jal	ra,1494 <prvResetNextTaskUnblockTime>
    1b1e:	200007b7          	lui	a5,0x20000
    1b22:	08478713          	addi	a4,a5,132 # 20000084 <xPendedTicks>
    1b26:	4304                	lw	s1,0(a4)
    1b28:	08478413          	addi	s0,a5,132
    1b2c:	cc91                	beqz	s1,1b48 <xTaskResumeAll+0x14c>
    1b2e:	20000937          	lui	s2,0x20000
    1b32:	4985                	li	s3,1
    1b34:	3b39                	jal	1852 <xTaskIncrementTick>
    1b36:	c509                	beqz	a0,1b40 <xTaskResumeAll+0x144>
    1b38:	09090793          	addi	a5,s2,144 # 20000090 <xYieldPending>
    1b3c:	0137a023          	sw	s3,0(a5)
    1b40:	14fd                	addi	s1,s1,-1
    1b42:	f8ed                	bnez	s1,1b34 <xTaskResumeAll+0x138>
    1b44:	00042023          	sw	zero,0(s0)
    1b48:	200007b7          	lui	a5,0x20000
    1b4c:	0907a783          	lw	a5,144(a5) # 20000090 <xYieldPending>
    1b50:	ee0789e3          	beqz	a5,1a42 <xTaskResumeAll+0x46>
    1b54:	e000e7b7          	lui	a5,0xe000e
    1b58:	6711                	lui	a4,0x4
    1b5a:	20e7a023          	sw	a4,512(a5) # e000e200 <__freertos_irq_stack_top+0xc0006200>
    1b5e:	4505                	li	a0,1
    1b60:	b5d5                	j	1a44 <xTaskResumeAll+0x48>

00001b62 <vTaskDelay>:
    1b62:	e519                	bnez	a0,1b70 <vTaskDelay+0xe>
    1b64:	e000e7b7          	lui	a5,0xe000e
    1b68:	6711                	lui	a4,0x4
    1b6a:	20e7a023          	sw	a4,512(a5) # e000e200 <__freertos_irq_stack_top+0xc0006200>
    1b6e:	8082                	ret
    1b70:	9a7fe2ef          	jal	t0,516 <__riscv_save_0>
    1b74:	200007b7          	lui	a5,0x20000
    1b78:	06c7a783          	lw	a5,108(a5) # 2000006c <uxSchedulerSuspended>
    1b7c:	1141                	addi	sp,sp,-16
    1b7e:	c39d                	beqz	a5,1ba4 <vTaskDelay+0x42>
    1b80:	67a1                	lui	a5,0x8
    1b82:	80078793          	addi	a5,a5,-2048 # 7800 <_data_lma+0x4d48>
    1b86:	30079073          	csrw	mstatus,a5
    1b8a:	00003637          	lui	a2,0x3
    1b8e:	00003537          	lui	a0,0x3
    1b92:	a4860613          	addi	a2,a2,-1464 # 2a48 <memcpy+0x1b2>
    1b96:	54900593          	li	a1,1353
    1b9a:	9e850513          	addi	a0,a0,-1560 # 29e8 <memcpy+0x152>
    1b9e:	48b000ef          	jal	ra,2828 <printf>
    1ba2:	a001                	j	1ba2 <vTaskDelay+0x40>
    1ba4:	c62a                	sw	a0,12(sp)
    1ba6:	3949                	jal	1838 <vTaskSuspendAll>
    1ba8:	4532                	lw	a0,12(sp)
    1baa:	4581                	li	a1,0
    1bac:	90dff0ef          	jal	ra,14b8 <prvAddCurrentTaskToDelayedList>
    1bb0:	35b1                	jal	19fc <xTaskResumeAll>
    1bb2:	e511                	bnez	a0,1bbe <vTaskDelay+0x5c>
    1bb4:	e000e7b7          	lui	a5,0xe000e
    1bb8:	6711                	lui	a4,0x4
    1bba:	20e7a023          	sw	a4,512(a5) # e000e200 <__freertos_irq_stack_top+0xc0006200>
    1bbe:	0141                	addi	sp,sp,16
    1bc0:	97bfe06f          	j	53a <__riscv_restore_0>

00001bc4 <vTaskSwitchContext>:
    1bc4:	200007b7          	lui	a5,0x20000
    1bc8:	06c7a703          	lw	a4,108(a5) # 2000006c <uxSchedulerSuspended>
    1bcc:	200007b7          	lui	a5,0x20000
    1bd0:	09078793          	addi	a5,a5,144 # 20000090 <xYieldPending>
    1bd4:	c701                	beqz	a4,1bdc <vTaskSwitchContext+0x18>
    1bd6:	4705                	li	a4,1
    1bd8:	c398                	sw	a4,0(a5)
    1bda:	8082                	ret
    1bdc:	0007a023          	sw	zero,0(a5)
    1be0:	200007b7          	lui	a5,0x20000
    1be4:	07478713          	addi	a4,a5,116 # 20000074 <uxTopReadyPriority>
    1be8:	4318                	lw	a4,0(a4)
    1bea:	07478613          	addi	a2,a5,116
    1bee:	200037b7          	lui	a5,0x20003
    1bf2:	0ec78793          	addi	a5,a5,236 # 200030ec <pxReadyTasksLists>
    1bf6:	4851                	li	a6,20
    1bf8:	030706b3          	mul	a3,a4,a6
    1bfc:	00d785b3          	add	a1,a5,a3
    1c00:	4188                	lw	a0,0(a1)
    1c02:	c515                	beqz	a0,1c2e <vTaskSwitchContext+0x6a>
    1c04:	41c8                	lw	a0,4(a1)
    1c06:	06a1                	addi	a3,a3,8
    1c08:	96be                	add	a3,a3,a5
    1c0a:	4148                	lw	a0,4(a0)
    1c0c:	c1c8                	sw	a0,4(a1)
    1c0e:	00d51463          	bne	a0,a3,1c16 <vTaskSwitchContext+0x52>
    1c12:	4154                	lw	a3,4(a0)
    1c14:	c1d4                	sw	a3,4(a1)
    1c16:	46d1                	li	a3,20
    1c18:	02d706b3          	mul	a3,a4,a3
    1c1c:	97b6                	add	a5,a5,a3
    1c1e:	43dc                	lw	a5,4(a5)
    1c20:	47d4                	lw	a3,12(a5)
    1c22:	200007b7          	lui	a5,0x20000
    1c26:	04d7ac23          	sw	a3,88(a5) # 20000058 <pxCurrentTCB>
    1c2a:	c218                	sw	a4,0(a2)
    1c2c:	8082                	ret
    1c2e:	e715                	bnez	a4,1c5a <vTaskSwitchContext+0x96>
    1c30:	8e7fe2ef          	jal	t0,516 <__riscv_save_0>
    1c34:	67a1                	lui	a5,0x8
    1c36:	80078793          	addi	a5,a5,-2048 # 7800 <_data_lma+0x4d48>
    1c3a:	30079073          	csrw	mstatus,a5
    1c3e:	00003637          	lui	a2,0x3
    1c42:	6585                	lui	a1,0x1
    1c44:	00003537          	lui	a0,0x3
    1c48:	a4860613          	addi	a2,a2,-1464 # 2a48 <memcpy+0x1b2>
    1c4c:	c0258593          	addi	a1,a1,-1022 # c02 <USART_Init+0x6c>
    1c50:	9e850513          	addi	a0,a0,-1560 # 29e8 <memcpy+0x152>
    1c54:	3d5000ef          	jal	ra,2828 <printf>
    1c58:	a001                	j	1c58 <vTaskSwitchContext+0x94>
    1c5a:	177d                	addi	a4,a4,-1
    1c5c:	bf71                	j	1bf8 <vTaskSwitchContext+0x34>

00001c5e <vTaskPlaceOnEventList>:
    1c5e:	8b9fe2ef          	jal	t0,516 <__riscv_save_0>
    1c62:	e505                	bnez	a0,1c8a <vTaskPlaceOnEventList+0x2c>
    1c64:	67a1                	lui	a5,0x8
    1c66:	80078793          	addi	a5,a5,-2048 # 7800 <_data_lma+0x4d48>
    1c6a:	30079073          	csrw	mstatus,a5
    1c6e:	00003637          	lui	a2,0x3
    1c72:	6585                	lui	a1,0x1
    1c74:	00003537          	lui	a0,0x3
    1c78:	a4860613          	addi	a2,a2,-1464 # 2a48 <memcpy+0x1b2>
    1c7c:	c1c58593          	addi	a1,a1,-996 # c1c <USART_Init+0x86>
    1c80:	9e850513          	addi	a0,a0,-1560 # 29e8 <memcpy+0x152>
    1c84:	3a5000ef          	jal	ra,2828 <printf>
    1c88:	a001                	j	1c88 <vTaskPlaceOnEventList+0x2a>
    1c8a:	200007b7          	lui	a5,0x20000
    1c8e:	842e                	mv	s0,a1
    1c90:	0587a583          	lw	a1,88(a5) # 20000058 <pxCurrentTCB>
    1c94:	05e1                	addi	a1,a1,24
    1c96:	bd2ff0ef          	jal	ra,1068 <vListInsert>
    1c9a:	4585                	li	a1,1
    1c9c:	8522                	mv	a0,s0
    1c9e:	81bff0ef          	jal	ra,14b8 <prvAddCurrentTaskToDelayedList>
    1ca2:	899fe06f          	j	53a <__riscv_restore_0>

00001ca6 <vTaskPlaceOnEventListRestricted>:
    1ca6:	871fe2ef          	jal	t0,516 <__riscv_save_0>
    1caa:	872a                	mv	a4,a0
    1cac:	e505                	bnez	a0,1cd4 <vTaskPlaceOnEventListRestricted+0x2e>
    1cae:	67a1                	lui	a5,0x8
    1cb0:	80078793          	addi	a5,a5,-2048 # 7800 <_data_lma+0x4d48>
    1cb4:	30079073          	csrw	mstatus,a5
    1cb8:	00003637          	lui	a2,0x3
    1cbc:	6585                	lui	a1,0x1
    1cbe:	00003537          	lui	a0,0x3
    1cc2:	a4860613          	addi	a2,a2,-1464 # 2a48 <memcpy+0x1b2>
    1cc6:	c5258593          	addi	a1,a1,-942 # c52 <USART_Cmd+0x4>
    1cca:	9e850513          	addi	a0,a0,-1560 # 29e8 <memcpy+0x152>
    1cce:	35b000ef          	jal	ra,2828 <printf>
    1cd2:	a001                	j	1cd2 <vTaskPlaceOnEventListRestricted+0x2c>
    1cd4:	200007b7          	lui	a5,0x20000
    1cd8:	05878793          	addi	a5,a5,88 # 20000058 <pxCurrentTCB>
    1cdc:	4354                	lw	a3,4(a4)
    1cde:	852e                	mv	a0,a1
    1ce0:	438c                	lw	a1,0(a5)
    1ce2:	0086a803          	lw	a6,8(a3)
    1ce6:	cdd4                	sw	a3,28(a1)
    1ce8:	438c                	lw	a1,0(a5)
    1cea:	0305a023          	sw	a6,32(a1)
    1cee:	0007a803          	lw	a6,0(a5)
    1cf2:	468c                	lw	a1,8(a3)
    1cf4:	0861                	addi	a6,a6,24
    1cf6:	0105a223          	sw	a6,4(a1)
    1cfa:	0007a803          	lw	a6,0(a5)
    1cfe:	439c                	lw	a5,0(a5)
    1d00:	0861                	addi	a6,a6,24
    1d02:	0106a423          	sw	a6,8(a3)
    1d06:	d798                	sw	a4,40(a5)
    1d08:	431c                	lw	a5,0(a4)
    1d0a:	0785                	addi	a5,a5,1
    1d0c:	c31c                	sw	a5,0(a4)
    1d0e:	c211                	beqz	a2,1d12 <vTaskPlaceOnEventListRestricted+0x6c>
    1d10:	557d                	li	a0,-1
    1d12:	85b2                	mv	a1,a2
    1d14:	fa4ff0ef          	jal	ra,14b8 <prvAddCurrentTaskToDelayedList>
    1d18:	823fe06f          	j	53a <__riscv_restore_0>

00001d1c <xTaskRemoveFromEventList>:
    1d1c:	455c                	lw	a5,12(a0)
    1d1e:	47dc                	lw	a5,12(a5)
    1d20:	e795                	bnez	a5,1d4c <xTaskRemoveFromEventList+0x30>
    1d22:	ff4fe2ef          	jal	t0,516 <__riscv_save_0>
    1d26:	67a1                	lui	a5,0x8
    1d28:	80078793          	addi	a5,a5,-2048 # 7800 <_data_lma+0x4d48>
    1d2c:	30079073          	csrw	mstatus,a5
    1d30:	00003637          	lui	a2,0x3
    1d34:	6585                	lui	a1,0x1
    1d36:	00003537          	lui	a0,0x3
    1d3a:	a4860613          	addi	a2,a2,-1464 # 2a48 <memcpy+0x1b2>
    1d3e:	c8258593          	addi	a1,a1,-894 # c82 <prvInsertBlockIntoFreeList+0xc>
    1d42:	9e850513          	addi	a0,a0,-1560 # 29e8 <memcpy+0x152>
    1d46:	2e3000ef          	jal	ra,2828 <printf>
    1d4a:	a001                	j	1d4a <xTaskRemoveFromEventList+0x2e>
    1d4c:	4fd0                	lw	a2,28(a5)
    1d4e:	5394                	lw	a3,32(a5)
    1d50:	5798                	lw	a4,40(a5)
    1d52:	01878593          	addi	a1,a5,24
    1d56:	c614                	sw	a3,8(a2)
    1d58:	c2d0                	sw	a2,4(a3)
    1d5a:	4350                	lw	a2,4(a4)
    1d5c:	00b61363          	bne	a2,a1,1d62 <xTaskRemoveFromEventList+0x46>
    1d60:	c354                	sw	a3,4(a4)
    1d62:	4314                	lw	a3,0(a4)
    1d64:	0207a423          	sw	zero,40(a5)
    1d68:	16fd                	addi	a3,a3,-1
    1d6a:	c314                	sw	a3,0(a4)
    1d6c:	20000737          	lui	a4,0x20000
    1d70:	06c72703          	lw	a4,108(a4) # 2000006c <uxSchedulerSuspended>
    1d74:	57d4                	lw	a3,44(a5)
    1d76:	ef25                	bnez	a4,1dee <xTaskRemoveFromEventList+0xd2>
    1d78:	478c                	lw	a1,8(a5)
    1d7a:	47d0                	lw	a2,12(a5)
    1d7c:	4bd8                	lw	a4,20(a5)
    1d7e:	c590                	sw	a2,8(a1)
    1d80:	47d0                	lw	a2,12(a5)
    1d82:	4348                	lw	a0,4(a4)
    1d84:	c24c                	sw	a1,4(a2)
    1d86:	00478593          	addi	a1,a5,4
    1d8a:	00b51363          	bne	a0,a1,1d90 <xTaskRemoveFromEventList+0x74>
    1d8e:	c350                	sw	a2,4(a4)
    1d90:	4310                	lw	a2,0(a4)
    1d92:	0007aa23          	sw	zero,20(a5)
    1d96:	167d                	addi	a2,a2,-1
    1d98:	c310                	sw	a2,0(a4)
    1d9a:	20000737          	lui	a4,0x20000
    1d9e:	07470713          	addi	a4,a4,116 # 20000074 <uxTopReadyPriority>
    1da2:	4310                	lw	a2,0(a4)
    1da4:	00d67363          	bgeu	a2,a3,1daa <xTaskRemoveFromEventList+0x8e>
    1da8:	c314                	sw	a3,0(a4)
    1daa:	4751                	li	a4,20
    1dac:	02e68633          	mul	a2,a3,a4
    1db0:	20003737          	lui	a4,0x20003
    1db4:	0ec70713          	addi	a4,a4,236 # 200030ec <pxReadyTasksLists>
    1db8:	9732                	add	a4,a4,a2
    1dba:	4350                	lw	a2,4(a4)
    1dbc:	4608                	lw	a0,8(a2)
    1dbe:	c790                	sw	a2,8(a5)
    1dc0:	c7c8                	sw	a0,12(a5)
    1dc2:	4608                	lw	a0,8(a2)
    1dc4:	c14c                	sw	a1,4(a0)
    1dc6:	c60c                	sw	a1,8(a2)
    1dc8:	cbd8                	sw	a4,20(a5)
    1dca:	431c                	lw	a5,0(a4)
    1dcc:	4501                	li	a0,0
    1dce:	0785                	addi	a5,a5,1
    1dd0:	c31c                	sw	a5,0(a4)
    1dd2:	200007b7          	lui	a5,0x20000
    1dd6:	0587a783          	lw	a5,88(a5) # 20000058 <pxCurrentTCB>
    1dda:	57dc                	lw	a5,44(a5)
    1ddc:	00d7f863          	bgeu	a5,a3,1dec <xTaskRemoveFromEventList+0xd0>
    1de0:	200007b7          	lui	a5,0x20000
    1de4:	4705                	li	a4,1
    1de6:	08e7a823          	sw	a4,144(a5) # 20000090 <xYieldPending>
    1dea:	4505                	li	a0,1
    1dec:	8082                	ret
    1dee:	20003737          	lui	a4,0x20003
    1df2:	24070713          	addi	a4,a4,576 # 20003240 <xPendingReadyList>
    1df6:	4350                	lw	a2,4(a4)
    1df8:	4608                	lw	a0,8(a2)
    1dfa:	cfd0                	sw	a2,28(a5)
    1dfc:	d388                	sw	a0,32(a5)
    1dfe:	4608                	lw	a0,8(a2)
    1e00:	c14c                	sw	a1,4(a0)
    1e02:	c60c                	sw	a1,8(a2)
    1e04:	d798                	sw	a4,40(a5)
    1e06:	b7d1                	j	1dca <xTaskRemoveFromEventList+0xae>

00001e08 <vTaskInternalSetTimeOutState>:
    1e08:	200007b7          	lui	a5,0x20000
    1e0c:	0807a783          	lw	a5,128(a5) # 20000080 <xNumOfOverflows>
    1e10:	c11c                	sw	a5,0(a0)
    1e12:	200007b7          	lui	a5,0x20000
    1e16:	08c7a783          	lw	a5,140(a5) # 2000008c <xTickCount>
    1e1a:	c15c                	sw	a5,4(a0)
    1e1c:	8082                	ret

00001e1e <xTaskCheckForTimeOut>:
    1e1e:	ef8fe2ef          	jal	t0,516 <__riscv_save_0>
    1e22:	1141                	addi	sp,sp,-16
    1e24:	e505                	bnez	a0,1e4c <xTaskCheckForTimeOut+0x2e>
    1e26:	67a1                	lui	a5,0x8
    1e28:	80078793          	addi	a5,a5,-2048 # 7800 <_data_lma+0x4d48>
    1e2c:	30079073          	csrw	mstatus,a5
    1e30:	00003637          	lui	a2,0x3
    1e34:	6585                	lui	a1,0x1
    1e36:	00003537          	lui	a0,0x3
    1e3a:	a4860613          	addi	a2,a2,-1464 # 2a48 <memcpy+0x1b2>
    1e3e:	cfd58593          	addi	a1,a1,-771 # cfd <pvPortMalloc+0x3b>
    1e42:	9e850513          	addi	a0,a0,-1560 # 29e8 <memcpy+0x152>
    1e46:	1e3000ef          	jal	ra,2828 <printf>
    1e4a:	a001                	j	1e4a <xTaskCheckForTimeOut+0x2c>
    1e4c:	e585                	bnez	a1,1e74 <xTaskCheckForTimeOut+0x56>
    1e4e:	67a1                	lui	a5,0x8
    1e50:	80078793          	addi	a5,a5,-2048 # 7800 <_data_lma+0x4d48>
    1e54:	30079073          	csrw	mstatus,a5
    1e58:	00003637          	lui	a2,0x3
    1e5c:	6585                	lui	a1,0x1
    1e5e:	00003537          	lui	a0,0x3
    1e62:	a4860613          	addi	a2,a2,-1464 # 2a48 <memcpy+0x1b2>
    1e66:	cfe58593          	addi	a1,a1,-770 # cfe <pvPortMalloc+0x3c>
    1e6a:	9e850513          	addi	a0,a0,-1560 # 29e8 <memcpy+0x152>
    1e6e:	1bb000ef          	jal	ra,2828 <printf>
    1e72:	a001                	j	1e72 <xTaskCheckForTimeOut+0x54>
    1e74:	c62e                	sw	a1,12(sp)
    1e76:	c42a                	sw	a0,8(sp)
    1e78:	97eff0ef          	jal	ra,ff6 <vPortEnterCritical>
    1e7c:	20000737          	lui	a4,0x20000
    1e80:	200007b7          	lui	a5,0x20000
    1e84:	05870713          	addi	a4,a4,88 # 20000058 <pxCurrentTCB>
    1e88:	08c7a683          	lw	a3,140(a5) # 2000008c <xTickCount>
    1e8c:	431c                	lw	a5,0(a4)
    1e8e:	4522                	lw	a0,8(sp)
    1e90:	45b2                	lw	a1,12(sp)
    1e92:	0517c783          	lbu	a5,81(a5)
    1e96:	cb99                	beqz	a5,1eac <xTaskCheckForTimeOut+0x8e>
    1e98:	431c                	lw	a5,0(a4)
    1e9a:	040788a3          	sb	zero,81(a5)
    1e9e:	4405                	li	s0,1
    1ea0:	96cff0ef          	jal	ra,100c <vPortExitCritical>
    1ea4:	8522                	mv	a0,s0
    1ea6:	0141                	addi	sp,sp,16
    1ea8:	e92fe06f          	j	53a <__riscv_restore_0>
    1eac:	419c                	lw	a5,0(a1)
    1eae:	577d                	li	a4,-1
    1eb0:	4401                	li	s0,0
    1eb2:	fee787e3          	beq	a5,a4,1ea0 <xTaskCheckForTimeOut+0x82>
    1eb6:	20000637          	lui	a2,0x20000
    1eba:	08062603          	lw	a2,128(a2) # 20000080 <xNumOfOverflows>
    1ebe:	00052803          	lw	a6,0(a0)
    1ec2:	4158                	lw	a4,4(a0)
    1ec4:	00c80763          	beq	a6,a2,1ed2 <xTaskCheckForTimeOut+0xb4>
    1ec8:	00e6e563          	bltu	a3,a4,1ed2 <xTaskCheckForTimeOut+0xb4>
    1ecc:	0005a023          	sw	zero,0(a1)
    1ed0:	b7f9                	j	1e9e <xTaskCheckForTimeOut+0x80>
    1ed2:	40e68633          	sub	a2,a3,a4
    1ed6:	fef67be3          	bgeu	a2,a5,1ecc <xTaskCheckForTimeOut+0xae>
    1eda:	8f95                	sub	a5,a5,a3
    1edc:	97ba                	add	a5,a5,a4
    1ede:	c19c                	sw	a5,0(a1)
    1ee0:	3725                	jal	1e08 <vTaskInternalSetTimeOutState>
    1ee2:	4401                	li	s0,0
    1ee4:	bf75                	j	1ea0 <xTaskCheckForTimeOut+0x82>

00001ee6 <vTaskMissedYield>:
    1ee6:	200007b7          	lui	a5,0x20000
    1eea:	4705                	li	a4,1
    1eec:	08e7a823          	sw	a4,144(a5) # 20000090 <xYieldPending>
    1ef0:	8082                	ret

00001ef2 <xTaskGetSchedulerState>:
    1ef2:	200007b7          	lui	a5,0x20000
    1ef6:	0887a783          	lw	a5,136(a5) # 20000088 <xSchedulerRunning>
    1efa:	4505                	li	a0,1
    1efc:	cb81                	beqz	a5,1f0c <xTaskGetSchedulerState+0x1a>
    1efe:	200007b7          	lui	a5,0x20000
    1f02:	06c7a503          	lw	a0,108(a5) # 2000006c <uxSchedulerSuspended>
    1f06:	00153513          	seqz	a0,a0
    1f0a:	0506                	slli	a0,a0,0x1
    1f0c:	8082                	ret

00001f0e <prvCheckForValidListAndQueue>:
    1f0e:	e08fe2ef          	jal	t0,516 <__riscv_save_0>
    1f12:	20000437          	lui	s0,0x20000
    1f16:	8e0ff0ef          	jal	ra,ff6 <vPortEnterCritical>
    1f1a:	0a040413          	addi	s0,s0,160 # 200000a0 <xTimerQueue>
    1f1e:	401c                	lw	a5,0(s0)
    1f20:	e7b1                	bnez	a5,1f6c <prvCheckForValidListAndQueue+0x5e>
    1f22:	20003537          	lui	a0,0x20003
    1f26:	27c50913          	addi	s2,a0,636 # 2000327c <xActiveTimerList1>
    1f2a:	27c50513          	addi	a0,a0,636
    1f2e:	920ff0ef          	jal	ra,104e <vListInitialise>
    1f32:	20003537          	lui	a0,0x20003
    1f36:	29050493          	addi	s1,a0,656 # 20003290 <xActiveTimerList2>
    1f3a:	29050513          	addi	a0,a0,656
    1f3e:	910ff0ef          	jal	ra,104e <vListInitialise>
    1f42:	200007b7          	lui	a5,0x20000
    1f46:	0927aa23          	sw	s2,148(a5) # 20000094 <pxCurrentTimerList>
    1f4a:	4601                	li	a2,0
    1f4c:	200007b7          	lui	a5,0x20000
    1f50:	45c1                	li	a1,16
    1f52:	4511                	li	a0,4
    1f54:	0897ac23          	sw	s1,152(a5) # 20000098 <pxOverflowTimerList>
    1f58:	acaff0ef          	jal	ra,1222 <xQueueGenericCreate>
    1f5c:	c008                	sw	a0,0(s0)
    1f5e:	c519                	beqz	a0,1f6c <prvCheckForValidListAndQueue+0x5e>
    1f60:	000035b7          	lui	a1,0x3
    1f64:	a8858593          	addi	a1,a1,-1400 # 2a88 <memcpy+0x1f2>
    1f68:	c6aff0ef          	jal	ra,13d2 <vQueueAddToRegistry>
    1f6c:	8a0ff0ef          	jal	ra,100c <vPortExitCritical>
    1f70:	dcafe06f          	j	53a <__riscv_restore_0>

00001f74 <prvInsertTimerInActiveList>:
    1f74:	da2fe2ef          	jal	t0,516 <__riscv_save_0>
    1f78:	c14c                	sw	a1,4(a0)
    1f7a:	c908                	sw	a0,16(a0)
    1f7c:	87aa                	mv	a5,a0
    1f7e:	02b66263          	bltu	a2,a1,1fa2 <prvInsertTimerInActiveList+0x2e>
    1f82:	4d18                	lw	a4,24(a0)
    1f84:	8e15                	sub	a2,a2,a3
    1f86:	4505                	li	a0,1
    1f88:	00e67b63          	bgeu	a2,a4,1f9e <prvInsertTimerInActiveList+0x2a>
    1f8c:	00478593          	addi	a1,a5,4
    1f90:	200007b7          	lui	a5,0x20000
    1f94:	0987a503          	lw	a0,152(a5) # 20000098 <pxOverflowTimerList>
    1f98:	8d0ff0ef          	jal	ra,1068 <vListInsert>
    1f9c:	4501                	li	a0,0
    1f9e:	d9cfe06f          	j	53a <__riscv_restore_0>
    1fa2:	00d67563          	bgeu	a2,a3,1fac <prvInsertTimerInActiveList+0x38>
    1fa6:	4505                	li	a0,1
    1fa8:	fed5fbe3          	bgeu	a1,a3,1f9e <prvInsertTimerInActiveList+0x2a>
    1fac:	00478593          	addi	a1,a5,4
    1fb0:	200007b7          	lui	a5,0x20000
    1fb4:	0947a503          	lw	a0,148(a5) # 20000094 <pxCurrentTimerList>
    1fb8:	b7c5                	j	1f98 <prvInsertTimerInActiveList+0x24>

00001fba <prvReloadTimer>:
    1fba:	d5cfe2ef          	jal	t0,516 <__riscv_save_0>
    1fbe:	842a                	mv	s0,a0
    1fc0:	84ae                	mv	s1,a1
    1fc2:	8932                	mv	s2,a2
    1fc4:	4c0c                	lw	a1,24(s0)
    1fc6:	86a6                	mv	a3,s1
    1fc8:	864a                	mv	a2,s2
    1fca:	95a6                	add	a1,a1,s1
    1fcc:	8522                	mv	a0,s0
    1fce:	375d                	jal	1f74 <prvInsertTimerInActiveList>
    1fd0:	e119                	bnez	a0,1fd6 <prvReloadTimer+0x1c>
    1fd2:	d68fe06f          	j	53a <__riscv_restore_0>
    1fd6:	4c1c                	lw	a5,24(s0)
    1fd8:	8522                	mv	a0,s0
    1fda:	94be                	add	s1,s1,a5
    1fdc:	501c                	lw	a5,32(s0)
    1fde:	9782                	jalr	a5
    1fe0:	b7d5                	j	1fc4 <prvReloadTimer+0xa>

00001fe2 <prvProcessExpiredTimer>:
    1fe2:	d34fe2ef          	jal	t0,516 <__riscv_save_0>
    1fe6:	200007b7          	lui	a5,0x20000
    1fea:	0947a783          	lw	a5,148(a5) # 20000094 <pxCurrentTimerList>
    1fee:	1141                	addi	sp,sp,-16
    1ff0:	84aa                	mv	s1,a0
    1ff2:	47dc                	lw	a5,12(a5)
    1ff4:	c62e                	sw	a1,12(sp)
    1ff6:	47c0                	lw	s0,12(a5)
    1ff8:	00440513          	addi	a0,s0,4
    1ffc:	89aff0ef          	jal	ra,1096 <uxListRemove>
    2000:	02444783          	lbu	a5,36(s0)
    2004:	4632                	lw	a2,12(sp)
    2006:	0047f713          	andi	a4,a5,4
    200a:	cb11                	beqz	a4,201e <prvProcessExpiredTimer+0x3c>
    200c:	85a6                	mv	a1,s1
    200e:	8522                	mv	a0,s0
    2010:	376d                	jal	1fba <prvReloadTimer>
    2012:	501c                	lw	a5,32(s0)
    2014:	8522                	mv	a0,s0
    2016:	9782                	jalr	a5
    2018:	0141                	addi	sp,sp,16
    201a:	d20fe06f          	j	53a <__riscv_restore_0>
    201e:	9bf9                	andi	a5,a5,-2
    2020:	02f40223          	sb	a5,36(s0)
    2024:	b7fd                	j	2012 <prvProcessExpiredTimer+0x30>

00002026 <prvSwitchTimerLists>:
    2026:	cf0fe2ef          	jal	t0,516 <__riscv_save_0>
    202a:	20000437          	lui	s0,0x20000
    202e:	09440693          	addi	a3,s0,148 # 20000094 <pxCurrentTimerList>
    2032:	4298                	lw	a4,0(a3)
    2034:	431c                	lw	a5,0(a4)
    2036:	eb91                	bnez	a5,204a <prvSwitchTimerLists+0x24>
    2038:	200007b7          	lui	a5,0x20000
    203c:	09878793          	addi	a5,a5,152 # 20000098 <pxOverflowTimerList>
    2040:	4390                	lw	a2,0(a5)
    2042:	c398                	sw	a4,0(a5)
    2044:	c290                	sw	a2,0(a3)
    2046:	cf4fe06f          	j	53a <__riscv_restore_0>
    204a:	475c                	lw	a5,12(a4)
    204c:	55fd                	li	a1,-1
    204e:	4388                	lw	a0,0(a5)
    2050:	3f49                	jal	1fe2 <prvProcessExpiredTimer>
    2052:	bff1                	j	202e <prvSwitchTimerLists+0x8>

00002054 <prvTimerTask>:
    2054:	c9afe2ef          	jal	t0,4ee <__riscv_save_10>
    2058:	690d                	lui	s2,0x3
    205a:	1141                	addi	sp,sp,-16
    205c:	20000ab7          	lui	s5,0x20000
    2060:	200009b7          	lui	s3,0x20000
    2064:	20000b37          	lui	s6,0x20000
    2068:	20000bb7          	lui	s7,0x20000
    206c:	a6490913          	addi	s2,s2,-1436 # 2a64 <memcpy+0x1ce>
    2070:	094aa783          	lw	a5,148(s5) # 20000094 <pxCurrentTimerList>
    2074:	4398                	lw	a4,0(a5)
    2076:	cb29                	beqz	a4,20c8 <prvTimerTask+0x74>
    2078:	47dc                	lw	a5,12(a5)
    207a:	4c81                	li	s9,0
    207c:	0007ac03          	lw	s8,0(a5)
    2080:	fb8ff0ef          	jal	ra,1838 <vTaskSuspendAll>
    2084:	fc4ff0ef          	jal	ra,1848 <xTaskGetTickCount>
    2088:	09c9a783          	lw	a5,156(s3) # 2000009c <xLastTime.6268>
    208c:	842a                	mv	s0,a0
    208e:	09c98493          	addi	s1,s3,156
    2092:	0a0b0a13          	addi	s4,s6,160 # 200000a0 <xTimerQueue>
    2096:	02f56c63          	bltu	a0,a5,20ce <prvTimerTask+0x7a>
    209a:	c088                	sw	a0,0(s1)
    209c:	020c8f63          	beqz	s9,20da <prvTimerTask+0x86>
    20a0:	098ba783          	lw	a5,152(s7) # 20000098 <pxOverflowTimerList>
    20a4:	4390                	lw	a2,0(a5)
    20a6:	00163613          	seqz	a2,a2
    20aa:	000a2503          	lw	a0,0(s4)
    20ae:	408c05b3          	sub	a1,s8,s0
    20b2:	b8cff0ef          	jal	ra,143e <vQueueWaitForMessageRestricted>
    20b6:	947ff0ef          	jal	ra,19fc <xTaskResumeAll>
    20ba:	ed11                	bnez	a0,20d6 <prvTimerTask+0x82>
    20bc:	e000e7b7          	lui	a5,0xe000e
    20c0:	6711                	lui	a4,0x4
    20c2:	20e7a023          	sw	a4,512(a5) # e000e200 <__freertos_irq_stack_top+0xc0006200>
    20c6:	a801                	j	20d6 <prvTimerTask+0x82>
    20c8:	4c85                	li	s9,1
    20ca:	4c01                	li	s8,0
    20cc:	bf55                	j	2080 <prvTimerTask+0x2c>
    20ce:	3fa1                	jal	2026 <prvSwitchTimerLists>
    20d0:	c080                	sw	s0,0(s1)
    20d2:	92bff0ef          	jal	ra,19fc <xTaskResumeAll>
    20d6:	4c21                	li	s8,8
    20d8:	a005                	j	20f8 <prvTimerTask+0xa4>
    20da:	4601                	li	a2,0
    20dc:	fd8567e3          	bltu	a0,s8,20aa <prvTimerTask+0x56>
    20e0:	91dff0ef          	jal	ra,19fc <xTaskResumeAll>
    20e4:	85a2                	mv	a1,s0
    20e6:	8562                	mv	a0,s8
    20e8:	3ded                	jal	1fe2 <prvProcessExpiredTimer>
    20ea:	b7f5                	j	20d6 <prvTimerTask+0x82>
    20ec:	4792                	lw	a5,4(sp)
    20ee:	45b2                	lw	a1,12(sp)
    20f0:	9782                	jalr	a5
    20f2:	4782                	lw	a5,0(sp)
    20f4:	0007dd63          	bgez	a5,210e <prvTimerTask+0xba>
    20f8:	000a2503          	lw	a0,0(s4)
    20fc:	4601                	li	a2,0
    20fe:	858a                	mv	a1,sp
    2100:	98cff0ef          	jal	ra,128c <xQueueReceive>
    2104:	d535                	beqz	a0,2070 <prvTimerTask+0x1c>
    2106:	4782                	lw	a5,0(sp)
    2108:	4522                	lw	a0,8(sp)
    210a:	fe07c1e3          	bltz	a5,20ec <prvTimerTask+0x98>
    210e:	4422                	lw	s0,8(sp)
    2110:	485c                	lw	a5,20(s0)
    2112:	e395                	bnez	a5,2136 <prvTimerTask+0xe2>
    2114:	f34ff0ef          	jal	ra,1848 <xTaskGetTickCount>
    2118:	409c                	lw	a5,0(s1)
    211a:	8caa                	mv	s9,a0
    211c:	00f57363          	bgeu	a0,a5,2122 <prvTimerTask+0xce>
    2120:	3719                	jal	2026 <prvSwitchTimerLists>
    2122:	4782                	lw	a5,0(sp)
    2124:	0194a023          	sw	s9,0(s1)
    2128:	17fd                	addi	a5,a5,-1
    212a:	fcfc67e3          	bltu	s8,a5,20f8 <prvTimerTask+0xa4>
    212e:	078a                	slli	a5,a5,0x2
    2130:	97ca                	add	a5,a5,s2
    2132:	439c                	lw	a5,0(a5)
    2134:	8782                	jr	a5
    2136:	00440513          	addi	a0,s0,4
    213a:	f5dfe0ef          	jal	ra,1096 <uxListRemove>
    213e:	bfd9                	j	2114 <prvTimerTask+0xc0>
    2140:	02444783          	lbu	a5,36(s0)
    2144:	4c0c                	lw	a1,24(s0)
    2146:	4692                	lw	a3,4(sp)
    2148:	0017e793          	ori	a5,a5,1
    214c:	02f40223          	sb	a5,36(s0)
    2150:	8666                	mv	a2,s9
    2152:	95b6                	add	a1,a1,a3
    2154:	8522                	mv	a0,s0
    2156:	3d39                	jal	1f74 <prvInsertTimerInActiveList>
    2158:	d145                	beqz	a0,20f8 <prvTimerTask+0xa4>
    215a:	02444783          	lbu	a5,36(s0)
    215e:	0047f713          	andi	a4,a5,4
    2162:	cb19                	beqz	a4,2178 <prvTimerTask+0x124>
    2164:	4c1c                	lw	a5,24(s0)
    2166:	4592                	lw	a1,4(sp)
    2168:	8666                	mv	a2,s9
    216a:	8522                	mv	a0,s0
    216c:	95be                	add	a1,a1,a5
    216e:	35b1                	jal	1fba <prvReloadTimer>
    2170:	501c                	lw	a5,32(s0)
    2172:	8522                	mv	a0,s0
    2174:	9782                	jalr	a5
    2176:	b749                	j	20f8 <prvTimerTask+0xa4>
    2178:	9bf9                	andi	a5,a5,-2
    217a:	02f40223          	sb	a5,36(s0)
    217e:	bfcd                	j	2170 <prvTimerTask+0x11c>
    2180:	02444783          	lbu	a5,36(s0)
    2184:	9bf9                	andi	a5,a5,-2
    2186:	02f40223          	sb	a5,36(s0)
    218a:	b7bd                	j	20f8 <prvTimerTask+0xa4>
    218c:	02444783          	lbu	a5,36(s0)
    2190:	4592                	lw	a1,4(sp)
    2192:	0017e793          	ori	a5,a5,1
    2196:	02f40223          	sb	a5,36(s0)
    219a:	cc0c                	sw	a1,24(s0)
    219c:	e195                	bnez	a1,21c0 <prvTimerTask+0x16c>
    219e:	67a1                	lui	a5,0x8
    21a0:	80078793          	addi	a5,a5,-2048 # 7800 <_data_lma+0x4d48>
    21a4:	30079073          	csrw	mstatus,a5
    21a8:	00003637          	lui	a2,0x3
    21ac:	00003537          	lui	a0,0x3
    21b0:	a9060613          	addi	a2,a2,-1392 # 2a90 <memcpy+0x1fa>
    21b4:	35900593          	li	a1,857
    21b8:	9e850513          	addi	a0,a0,-1560 # 29e8 <memcpy+0x152>
    21bc:	25b5                	jal	2828 <printf>
    21be:	a001                	j	21be <prvTimerTask+0x16a>
    21c0:	86e6                	mv	a3,s9
    21c2:	8666                	mv	a2,s9
    21c4:	95e6                	add	a1,a1,s9
    21c6:	8522                	mv	a0,s0
    21c8:	3375                	jal	1f74 <prvInsertTimerInActiveList>
    21ca:	b73d                	j	20f8 <prvTimerTask+0xa4>
    21cc:	02444783          	lbu	a5,36(s0)
    21d0:	0027f713          	andi	a4,a5,2
    21d4:	fb45                	bnez	a4,2184 <prvTimerTask+0x130>
    21d6:	8522                	mv	a0,s0
    21d8:	c75fe0ef          	jal	ra,e4c <vPortFree>
    21dc:	bf31                	j	20f8 <prvTimerTask+0xa4>

000021de <xTimerCreateTimerTask>:
    21de:	b38fe2ef          	jal	t0,516 <__riscv_save_0>
    21e2:	3335                	jal	1f0e <prvCheckForValidListAndQueue>
    21e4:	200007b7          	lui	a5,0x20000
    21e8:	0a07a783          	lw	a5,160(a5) # 200000a0 <xTimerQueue>
    21ec:	e395                	bnez	a5,2210 <xTimerCreateTimerTask+0x32>
    21ee:	67a1                	lui	a5,0x8
    21f0:	80078793          	addi	a5,a5,-2048 # 7800 <_data_lma+0x4d48>
    21f4:	30079073          	csrw	mstatus,a5
    21f8:	00003637          	lui	a2,0x3
    21fc:	00003537          	lui	a0,0x3
    2200:	a9060613          	addi	a2,a2,-1392 # 2a90 <memcpy+0x1fa>
    2204:	11900593          	li	a1,281
    2208:	9e850513          	addi	a0,a0,-1560 # 29e8 <memcpy+0x152>
    220c:	2d31                	jal	2828 <printf>
    220e:	a001                	j	220e <xTimerCreateTimerTask+0x30>
    2210:	200007b7          	lui	a5,0x20000
    2214:	000035b7          	lui	a1,0x3
    2218:	00002537          	lui	a0,0x2
    221c:	0a478793          	addi	a5,a5,164 # 200000a4 <xTimerTaskHandle>
    2220:	4739                	li	a4,14
    2222:	4681                	li	a3,0
    2224:	10000613          	li	a2,256
    2228:	aa858593          	addi	a1,a1,-1368 # 2aa8 <memcpy+0x212>
    222c:	05450513          	addi	a0,a0,84 # 2054 <prvTimerTask>
    2230:	b74ff0ef          	jal	ra,15a4 <xTaskCreate>
    2234:	dd4d                	beqz	a0,21ee <xTimerCreateTimerTask+0x10>
    2236:	b04fe06f          	j	53a <__riscv_restore_0>

0000223a <Delay_Init>:
    223a:	200007b7          	lui	a5,0x20000
    223e:	0107a783          	lw	a5,16(a5) # 20000010 <SystemCoreClock>
    2242:	007a1737          	lui	a4,0x7a1
    2246:	20070713          	addi	a4,a4,512 # 7a1200 <_data_lma+0x79e748>
    224a:	02e7d7b3          	divu	a5,a5,a4
    224e:	20000737          	lui	a4,0x20000
    2252:	0ff7f793          	andi	a5,a5,255
    2256:	0af70523          	sb	a5,170(a4) # 200000aa <p_us>
    225a:	3e800713          	li	a4,1000
    225e:	02e787b3          	mul	a5,a5,a4
    2262:	20000737          	lui	a4,0x20000
    2266:	0af71423          	sh	a5,168(a4) # 200000a8 <p_ms>
    226a:	8082                	ret

0000226c <USART_Printf_Init>:
    226c:	aaafe2ef          	jal	t0,516 <__riscv_save_0>
    2270:	842a                	mv	s0,a0
    2272:	6511                	lui	a0,0x4
    2274:	1101                	addi	sp,sp,-32
    2276:	4585                	li	a1,1
    2278:	0511                	addi	a0,a0,4
    227a:	8fffe0ef          	jal	ra,b78 <RCC_APB2PeriphClockCmd>
    227e:	20000793          	li	a5,512
    2282:	827c                	sh	a5,4(sp)
    2284:	40011537          	lui	a0,0x40011
    2288:	478d                	li	a5,3
    228a:	c43e                	sw	a5,8(sp)
    228c:	004c                	addi	a1,sp,4
    228e:	47e1                	li	a5,24
    2290:	80050513          	addi	a0,a0,-2048 # 40010800 <__freertos_irq_stack_top+0x20008800>
    2294:	c63e                	sw	a5,12(sp)
    2296:	e90fe0ef          	jal	ra,926 <GPIO_Init>
    229a:	c822                	sw	s0,16(sp)
    229c:	40014437          	lui	s0,0x40014
    22a0:	000807b7          	lui	a5,0x80
    22a4:	080c                	addi	a1,sp,16
    22a6:	80040513          	addi	a0,s0,-2048 # 40013800 <__freertos_irq_stack_top+0x2000b800>
    22aa:	cc3e                	sw	a5,24(sp)
    22ac:	ca02                	sw	zero,20(sp)
    22ae:	00011e23          	sh	zero,28(sp)
    22b2:	8e5fe0ef          	jal	ra,b96 <USART_Init>
    22b6:	4585                	li	a1,1
    22b8:	80040513          	addi	a0,s0,-2048
    22bc:	993fe0ef          	jal	ra,c4e <USART_Cmd>
    22c0:	6105                	addi	sp,sp,32
    22c2:	a78fe06f          	j	53a <__riscv_restore_0>

000022c6 <_write>:
    22c6:	a36fe2ef          	jal	t0,4fc <__riscv_save_4>
    22ca:	400144b7          	lui	s1,0x40014
    22ce:	89ae                	mv	s3,a1
    22d0:	8932                	mv	s2,a2
    22d2:	4401                	li	s0,0
    22d4:	80048493          	addi	s1,s1,-2048 # 40013800 <__freertos_irq_stack_top+0x2000b800>
    22d8:	01244563          	blt	s0,s2,22e2 <_write+0x1c>
    22dc:	854a                	mv	a0,s2
    22de:	a52fe06f          	j	530 <__riscv_restore_4>
    22e2:	04000593          	li	a1,64
    22e6:	8526                	mv	a0,s1
    22e8:	985fe0ef          	jal	ra,c6c <USART_GetFlagStatus>
    22ec:	d97d                	beqz	a0,22e2 <_write+0x1c>
    22ee:	008987b3          	add	a5,s3,s0
    22f2:	00078583          	lb	a1,0(a5) # 80000 <_data_lma+0x7d548>
    22f6:	8526                	mv	a0,s1
    22f8:	0405                	addi	s0,s0,1
    22fa:	05c2                	slli	a1,a1,0x10
    22fc:	81c1                	srli	a1,a1,0x10
    22fe:	967fe0ef          	jal	ra,c64 <USART_SendData>
    2302:	bfd9                	j	22d8 <_write+0x12>

00002304 <printchar>:
    2304:	1101                	addi	sp,sp,-32
    2306:	ce06                	sw	ra,28(sp)
    2308:	c62e                	sw	a1,12(sp)
    230a:	cd0d                	beqz	a0,2344 <printchar+0x40>
    230c:	4118                	lw	a4,0(a0)
    230e:	87aa                	mv	a5,a0
    2310:	c305                	beqz	a4,2330 <printchar+0x2c>
    2312:	4158                	lw	a4,4(a0)
    2314:	557d                	li	a0,-1
    2316:	cb11                	beqz	a4,232a <printchar+0x26>
    2318:	4685                	li	a3,1
    231a:	00d71b63          	bne	a4,a3,2330 <printchar+0x2c>
    231e:	4798                	lw	a4,8(a5)
    2320:	00070023          	sb	zero,0(a4)
    2324:	0007a223          	sw	zero,4(a5)
    2328:	4505                	li	a0,1
    232a:	40f2                	lw	ra,28(sp)
    232c:	6105                	addi	sp,sp,32
    232e:	8082                	ret
    2330:	4798                	lw	a4,8(a5)
    2332:	46b2                	lw	a3,12(sp)
    2334:	a314                	sb	a3,0(a4)
    2336:	4798                	lw	a4,8(a5)
    2338:	0705                	addi	a4,a4,1
    233a:	c798                	sw	a4,8(a5)
    233c:	43d8                	lw	a4,4(a5)
    233e:	177d                	addi	a4,a4,-1
    2340:	c3d8                	sw	a4,4(a5)
    2342:	b7dd                	j	2328 <printchar+0x24>
    2344:	4605                	li	a2,1
    2346:	006c                	addi	a1,sp,12
    2348:	3fbd                	jal	22c6 <_write>
    234a:	bff9                	j	2328 <printchar+0x24>

0000234c <prints>:
    234c:	7179                	addi	sp,sp,-48
    234e:	d422                	sw	s0,40(sp)
    2350:	d226                	sw	s1,36(sp)
    2352:	ce4e                	sw	s3,28(sp)
    2354:	cc52                	sw	s4,24(sp)
    2356:	ca56                	sw	s5,20(sp)
    2358:	d606                	sw	ra,44(sp)
    235a:	d04a                	sw	s2,32(sp)
    235c:	c85a                	sw	s6,16(sp)
    235e:	8a2a                	mv	s4,a0
    2360:	8aae                	mv	s5,a1
    2362:	8432                	mv	s0,a2
    2364:	4481                	li	s1,0
    2366:	02000993          	li	s3,32
    236a:	02064463          	bltz	a2,2392 <prints+0x46>
    236e:	009a87b3          	add	a5,s5,s1
    2372:	00078783          	lb	a5,0(a5)
    2376:	e39d                	bnez	a5,239c <prints+0x50>
    2378:	0284d663          	bge	s1,s0,23a4 <prints+0x58>
    237c:	02e4d263          	bge	s1,a4,23a0 <prints+0x54>
    2380:	8c19                	sub	s0,s0,a4
    2382:	0026f793          	andi	a5,a3,2
    2386:	02000993          	li	s3,32
    238a:	c781                	beqz	a5,2392 <prints+0x46>
    238c:	e319                	bnez	a4,2392 <prints+0x46>
    238e:	03000993          	li	s3,48
    2392:	8a85                	andi	a3,a3,1
    2394:	4901                	li	s2,0
    2396:	e69d                	bnez	a3,23c4 <prints+0x78>
    2398:	8922                	mv	s2,s0
    239a:	a829                	j	23b4 <prints+0x68>
    239c:	0485                	addi	s1,s1,1
    239e:	bfc1                	j	236e <prints+0x22>
    23a0:	8c05                	sub	s0,s0,s1
    23a2:	b7c5                	j	2382 <prints+0x36>
    23a4:	4401                	li	s0,0
    23a6:	bff1                	j	2382 <prints+0x36>
    23a8:	85ce                	mv	a1,s3
    23aa:	8552                	mv	a0,s4
    23ac:	c63a                	sw	a4,12(sp)
    23ae:	3f99                	jal	2304 <printchar>
    23b0:	4732                	lw	a4,12(sp)
    23b2:	197d                	addi	s2,s2,-1
    23b4:	ff204ae3          	bgtz	s2,23a8 <prints+0x5c>
    23b8:	8922                	mv	s2,s0
    23ba:	00045363          	bgez	s0,23c0 <prints+0x74>
    23be:	4901                	li	s2,0
    23c0:	41240433          	sub	s0,s0,s2
    23c4:	02e4cb63          	blt	s1,a4,23fa <prints+0xae>
    23c8:	84ca                	mv	s1,s2
    23ca:	412487b3          	sub	a5,s1,s2
    23ce:	97d6                	add	a5,a5,s5
    23d0:	00078583          	lb	a1,0(a5)
    23d4:	ed9d                	bnez	a1,2412 <prints+0xc6>
    23d6:	8922                	mv	s2,s0
    23d8:	05204163          	bgtz	s2,241a <prints+0xce>
    23dc:	00045363          	bgez	s0,23e2 <prints+0x96>
    23e0:	4401                	li	s0,0
    23e2:	00940533          	add	a0,s0,s1
    23e6:	50b2                	lw	ra,44(sp)
    23e8:	5422                	lw	s0,40(sp)
    23ea:	5492                	lw	s1,36(sp)
    23ec:	5902                	lw	s2,32(sp)
    23ee:	49f2                	lw	s3,28(sp)
    23f0:	4a62                	lw	s4,24(sp)
    23f2:	4ad2                	lw	s5,20(sp)
    23f4:	4b42                	lw	s6,16(sp)
    23f6:	6145                	addi	sp,sp,48
    23f8:	8082                	ret
    23fa:	409704b3          	sub	s1,a4,s1
    23fe:	8b26                	mv	s6,s1
    2400:	03000593          	li	a1,48
    2404:	8552                	mv	a0,s4
    2406:	1b7d                	addi	s6,s6,-1
    2408:	3df5                	jal	2304 <printchar>
    240a:	fe0b1be3          	bnez	s6,2400 <prints+0xb4>
    240e:	9926                	add	s2,s2,s1
    2410:	bf65                	j	23c8 <prints+0x7c>
    2412:	8552                	mv	a0,s4
    2414:	3dc5                	jal	2304 <printchar>
    2416:	0485                	addi	s1,s1,1
    2418:	bf4d                	j	23ca <prints+0x7e>
    241a:	85ce                	mv	a1,s3
    241c:	8552                	mv	a0,s4
    241e:	35dd                	jal	2304 <printchar>
    2420:	197d                	addi	s2,s2,-1
    2422:	bf5d                	j	23d8 <prints+0x8c>

00002424 <printInt>:
    2424:	715d                	addi	sp,sp,-80
    2426:	c2a6                	sw	s1,68(sp)
    2428:	dc52                	sw	s4,56(sp)
    242a:	c686                	sw	ra,76(sp)
    242c:	c4a2                	sw	s0,72(sp)
    242e:	c0ca                	sw	s2,64(sp)
    2430:	de4e                	sw	s3,60(sp)
    2432:	da56                	sw	s5,52(sp)
    2434:	84ba                	mv	s1,a4
    2436:	8a3e                	mv	s4,a5
    2438:	e195                	bnez	a1,245c <printInt+0x38>
    243a:	03000793          	li	a5,48
    243e:	4701                	li	a4,0
    2440:	86d2                	mv	a3,s4
    2442:	8626                	mv	a2,s1
    2444:	082c                	addi	a1,sp,24
    2446:	84fc                	sh	a5,24(sp)
    2448:	3711                	jal	234c <prints>
    244a:	40b6                	lw	ra,76(sp)
    244c:	4426                	lw	s0,72(sp)
    244e:	4496                	lw	s1,68(sp)
    2450:	4906                	lw	s2,64(sp)
    2452:	59f2                	lw	s3,60(sp)
    2454:	5a62                	lw	s4,56(sp)
    2456:	5ad2                	lw	s5,52(sp)
    2458:	6161                	addi	sp,sp,80
    245a:	8082                	ret
    245c:	892a                	mv	s2,a0
    245e:	8436                	mv	s0,a3
    2460:	8ac6                	mv	s5,a7
    2462:	ca91                	beqz	a3,2476 <printInt+0x52>
    2464:	47a9                	li	a5,10
    2466:	4401                	li	s0,0
    2468:	00f61763          	bne	a2,a5,2476 <printInt+0x52>
    246c:	0005d563          	bgez	a1,2476 <printInt+0x52>
    2470:	40b005b3          	neg	a1,a1
    2474:	4405                	li	s0,1
    2476:	020107a3          	sb	zero,47(sp)
    247a:	02f10793          	addi	a5,sp,47
    247e:	46a5                	li	a3,9
    2480:	fc680513          	addi	a0,a6,-58
    2484:	02c5f733          	remu	a4,a1,a2
    2488:	00e6d363          	bge	a3,a4,248e <printInt+0x6a>
    248c:	972a                	add	a4,a4,a0
    248e:	03070713          	addi	a4,a4,48
    2492:	fee78fa3          	sb	a4,-1(a5)
    2496:	fff78993          	addi	s3,a5,-1
    249a:	02c5d733          	divu	a4,a1,a2
    249e:	04c5f763          	bgeu	a1,a2,24ec <printInt+0xc8>
    24a2:	cc01                	beqz	s0,24ba <printInt+0x96>
    24a4:	c4b9                	beqz	s1,24f2 <printInt+0xce>
    24a6:	002a7713          	andi	a4,s4,2
    24aa:	c721                	beqz	a4,24f2 <printInt+0xce>
    24ac:	02d00593          	li	a1,45
    24b0:	854a                	mv	a0,s2
    24b2:	c642                	sw	a6,12(sp)
    24b4:	3d81                	jal	2304 <printchar>
    24b6:	4832                	lw	a6,12(sp)
    24b8:	14fd                	addi	s1,s1,-1
    24ba:	004a7793          	andi	a5,s4,4
    24be:	cf99                	beqz	a5,24dc <printInt+0xb8>
    24c0:	06100793          	li	a5,97
    24c4:	03000593          	li	a1,48
    24c8:	854a                	mv	a0,s2
    24ca:	02f81c63          	bne	a6,a5,2502 <printInt+0xde>
    24ce:	3d1d                	jal	2304 <printchar>
    24d0:	07800593          	li	a1,120
    24d4:	854a                	mv	a0,s2
    24d6:	353d                	jal	2304 <printchar>
    24d8:	0409                	addi	s0,s0,2
    24da:	14f9                	addi	s1,s1,-2
    24dc:	8756                	mv	a4,s5
    24de:	86d2                	mv	a3,s4
    24e0:	8626                	mv	a2,s1
    24e2:	85ce                	mv	a1,s3
    24e4:	854a                	mv	a0,s2
    24e6:	359d                	jal	234c <prints>
    24e8:	9522                	add	a0,a0,s0
    24ea:	b785                	j	244a <printInt+0x26>
    24ec:	85ba                	mv	a1,a4
    24ee:	87ce                	mv	a5,s3
    24f0:	bf51                	j	2484 <printInt+0x60>
    24f2:	02d00713          	li	a4,45
    24f6:	fee98fa3          	sb	a4,-1(s3)
    24fa:	4401                	li	s0,0
    24fc:	ffe78993          	addi	s3,a5,-2
    2500:	bf6d                	j	24ba <printInt+0x96>
    2502:	3509                	jal	2304 <printchar>
    2504:	05800593          	li	a1,88
    2508:	b7f1                	j	24d4 <printInt+0xb0>

0000250a <printLongLongInt>:
    250a:	4501                	li	a0,0
    250c:	8082                	ret

0000250e <printDouble>:
    250e:	4501                	li	a0,0
    2510:	8082                	ret

00002512 <print>:
    2512:	7139                	addi	sp,sp,-64
    2514:	d05a                	sw	s6,32(sp)
    2516:	00003b37          	lui	s6,0x3
    251a:	dc22                	sw	s0,56(sp)
    251c:	da26                	sw	s1,52(sp)
    251e:	d84a                	sw	s2,48(sp)
    2520:	d64e                	sw	s3,44(sp)
    2522:	d452                	sw	s4,40(sp)
    2524:	d256                	sw	s5,36(sp)
    2526:	ce5e                	sw	s7,28(sp)
    2528:	cc62                	sw	s8,24(sp)
    252a:	de06                	sw	ra,60(sp)
    252c:	ca66                	sw	s9,20(sp)
    252e:	89aa                	mv	s3,a0
    2530:	892e                	mv	s2,a1
    2532:	8432                	mv	s0,a2
    2534:	4a01                	li	s4,0
    2536:	4481                	li	s1,0
    2538:	02500b93          	li	s7,37
    253c:	02b00a93          	li	s5,43
    2540:	4c29                	li	s8,10
    2542:	ab0b0b13          	addi	s6,s6,-1360 # 2ab0 <memcpy+0x21a>
    2546:	00090583          	lb	a1,0(s2)
    254a:	e585                	bnez	a1,2572 <print+0x60>
    254c:	00098563          	beqz	s3,2556 <print+0x44>
    2550:	4581                	li	a1,0
    2552:	854e                	mv	a0,s3
    2554:	3b45                	jal	2304 <printchar>
    2556:	50f2                	lw	ra,60(sp)
    2558:	5462                	lw	s0,56(sp)
    255a:	8526                	mv	a0,s1
    255c:	5942                	lw	s2,48(sp)
    255e:	54d2                	lw	s1,52(sp)
    2560:	59b2                	lw	s3,44(sp)
    2562:	5a22                	lw	s4,40(sp)
    2564:	5a92                	lw	s5,36(sp)
    2566:	5b02                	lw	s6,32(sp)
    2568:	4bf2                	lw	s7,28(sp)
    256a:	4c62                	lw	s8,24(sp)
    256c:	4cd2                	lw	s9,20(sp)
    256e:	6121                	addi	sp,sp,64
    2570:	8082                	ret
    2572:	01758763          	beq	a1,s7,2580 <print+0x6e>
    2576:	854e                	mv	a0,s3
    2578:	3371                	jal	2304 <printchar>
    257a:	0485                	addi	s1,s1,1
    257c:	0905                	addi	s2,s2,1
    257e:	b7e1                	j	2546 <print+0x34>
    2580:	00190783          	lb	a5,1(s2)
    2584:	00190c93          	addi	s9,s2,1
    2588:	01779963          	bne	a5,s7,259a <print+0x88>
    258c:	02500593          	li	a1,37
    2590:	854e                	mv	a0,s3
    2592:	3b8d                	jal	2304 <printchar>
    2594:	0485                	addi	s1,s1,1
    2596:	8966                	mv	s2,s9
    2598:	b7d5                	j	257c <print+0x6a>
    259a:	dbcd                	beqz	a5,254c <print+0x3a>
    259c:	05578763          	beq	a5,s5,25ea <print+0xd8>
    25a0:	00fac863          	blt	s5,a5,25b0 <print+0x9e>
    25a4:	02300713          	li	a4,35
    25a8:	04e78463          	beq	a5,a4,25f0 <print+0xde>
    25ac:	4781                	li	a5,0
    25ae:	a005                	j	25ce <print+0xbc>
    25b0:	02d00713          	li	a4,45
    25b4:	00e78a63          	beq	a5,a4,25c8 <print+0xb6>
    25b8:	03000713          	li	a4,48
    25bc:	fee798e3          	bne	a5,a4,25ac <print+0x9a>
    25c0:	00290c93          	addi	s9,s2,2
    25c4:	4789                	li	a5,2
    25c6:	a021                	j	25ce <print+0xbc>
    25c8:	00290c93          	addi	s9,s2,2
    25cc:	4785                	li	a5,1
    25ce:	000c8703          	lb	a4,0(s9)
    25d2:	05570363          	beq	a4,s5,2618 <print+0x106>
    25d6:	02eac163          	blt	s5,a4,25f8 <print+0xe6>
    25da:	02300693          	li	a3,35
    25de:	02d70b63          	beq	a4,a3,2614 <print+0x102>
    25e2:	8966                	mv	s2,s9
    25e4:	4601                	li	a2,0
    25e6:	45a5                	li	a1,9
    25e8:	a835                	j	2624 <print+0x112>
    25ea:	00290c93          	addi	s9,s2,2
    25ee:	bf7d                	j	25ac <print+0x9a>
    25f0:	00290c93          	addi	s9,s2,2
    25f4:	4791                	li	a5,4
    25f6:	bfe1                	j	25ce <print+0xbc>
    25f8:	02d00693          	li	a3,45
    25fc:	00d70963          	beq	a4,a3,260e <print+0xfc>
    2600:	03000693          	li	a3,48
    2604:	fcd71fe3          	bne	a4,a3,25e2 <print+0xd0>
    2608:	0027e793          	ori	a5,a5,2
    260c:	a031                	j	2618 <print+0x106>
    260e:	0c85                	addi	s9,s9,1
    2610:	4785                	li	a5,1
    2612:	bfc1                	j	25e2 <print+0xd0>
    2614:	0047e793          	ori	a5,a5,4
    2618:	0c85                	addi	s9,s9,1
    261a:	b7e1                	j	25e2 <print+0xd0>
    261c:	03860633          	mul	a2,a2,s8
    2620:	0905                	addi	s2,s2,1
    2622:	9636                	add	a2,a2,a3
    2624:	00090703          	lb	a4,0(s2)
    2628:	fd070693          	addi	a3,a4,-48
    262c:	0ff6f513          	andi	a0,a3,255
    2630:	fea5f6e3          	bgeu	a1,a0,261c <print+0x10a>
    2634:	02e00593          	li	a1,46
    2638:	4699                	li	a3,6
    263a:	00b71e63          	bne	a4,a1,2656 <print+0x144>
    263e:	0905                	addi	s2,s2,1
    2640:	4681                	li	a3,0
    2642:	45a5                	li	a1,9
    2644:	00090703          	lb	a4,0(s2)
    2648:	fd070713          	addi	a4,a4,-48
    264c:	0ff77513          	andi	a0,a4,255
    2650:	02a5f563          	bgeu	a1,a0,267a <print+0x168>
    2654:	8a36                	mv	s4,a3
    2656:	00090703          	lb	a4,0(s2)
    265a:	06a00593          	li	a1,106
    265e:	0ab70163          	beq	a4,a1,2700 <print+0x1ee>
    2662:	02e5c163          	blt	a1,a4,2684 <print+0x172>
    2666:	04c00593          	li	a1,76
    266a:	08b70b63          	beq	a4,a1,2700 <print+0x1ee>
    266e:	06800593          	li	a1,104
    2672:	08b70063          	beq	a4,a1,26f2 <print+0x1e0>
    2676:	4581                	li	a1,0
    2678:	a02d                	j	26a2 <print+0x190>
    267a:	038686b3          	mul	a3,a3,s8
    267e:	0905                	addi	s2,s2,1
    2680:	96ba                	add	a3,a3,a4
    2682:	b7c9                	j	2644 <print+0x132>
    2684:	07400593          	li	a1,116
    2688:	06b70c63          	beq	a4,a1,2700 <print+0x1ee>
    268c:	07a00593          	li	a1,122
    2690:	06b70863          	beq	a4,a1,2700 <print+0x1ee>
    2694:	06c00513          	li	a0,108
    2698:	4581                	li	a1,0
    269a:	00a71463          	bne	a4,a0,26a2 <print+0x190>
    269e:	0905                	addi	s2,s2,1
    26a0:	4591                	li	a1,4
    26a2:	00090703          	lb	a4,0(s2)
    26a6:	06000513          	li	a0,96
    26aa:	06100813          	li	a6,97
    26ae:	00e54463          	blt	a0,a4,26b6 <print+0x1a4>
    26b2:	04100813          	li	a6,65
    26b6:	06700513          	li	a0,103
    26ba:	06e54063          	blt	a0,a4,271a <print+0x208>
    26be:	06500513          	li	a0,101
    26c2:	14a75463          	bge	a4,a0,280a <print+0x2f8>
    26c6:	04700513          	li	a0,71
    26ca:	02e54d63          	blt	a0,a4,2704 <print+0x1f2>
    26ce:	04500593          	li	a1,69
    26d2:	12b75c63          	bge	a4,a1,280a <print+0x2f8>
    26d6:	04300693          	li	a3,67
    26da:	ead711e3          	bne	a4,a3,257c <print+0x6a>
    26de:	4018                	lw	a4,0(s0)
    26e0:	00440c93          	addi	s9,s0,4
    26e4:	000106a3          	sb	zero,13(sp)
    26e8:	8658                	sb	a4,12(sp)
    26ea:	86be                	mv	a3,a5
    26ec:	4701                	li	a4,0
    26ee:	006c                	addi	a1,sp,12
    26f0:	a041                	j	2770 <print+0x25e>
    26f2:	00190503          	lb	a0,1(s2)
    26f6:	4581                	li	a1,0
    26f8:	fae515e3          	bne	a0,a4,26a2 <print+0x190>
    26fc:	0909                	addi	s2,s2,2
    26fe:	b755                	j	26a2 <print+0x190>
    2700:	0905                	addi	s2,s2,1
    2702:	bf95                	j	2676 <print+0x164>
    2704:	06300693          	li	a3,99
    2708:	fcd70be3          	beq	a4,a3,26de <print+0x1cc>
    270c:	06e6c663          	blt	a3,a4,2778 <print+0x266>
    2710:	05800693          	li	a3,88
    2714:	02d70363          	beq	a4,a3,273a <print+0x228>
    2718:	b595                	j	257c <print+0x6a>
    271a:	07300693          	li	a3,115
    271e:	04d70163          	beq	a4,a3,2760 <print+0x24e>
    2722:	02e6c863          	blt	a3,a4,2752 <print+0x240>
    2726:	06f00693          	li	a3,111
    272a:	0ad70d63          	beq	a4,a3,27e4 <print+0x2d2>
    272e:	07000693          	li	a3,112
    2732:	0047e793          	ori	a5,a5,4
    2736:	e4d713e3          	bne	a4,a3,257c <print+0x6a>
    273a:	cdd1                	beqz	a1,27d6 <print+0x2c4>
    273c:	041d                	addi	s0,s0,7
    273e:	ff847593          	andi	a1,s0,-8
    2742:	88c2                	mv	a7,a6
    2744:	00858413          	addi	s0,a1,8
    2748:	883e                	mv	a6,a5
    274a:	4701                	li	a4,0
    274c:	87b2                	mv	a5,a2
    274e:	46c1                	li	a3,16
    2750:	a83d                	j	278e <print+0x27c>
    2752:	07500693          	li	a3,117
    2756:	04d70f63          	beq	a4,a3,27b4 <print+0x2a2>
    275a:	07800693          	li	a3,120
    275e:	bf5d                	j	2714 <print+0x202>
    2760:	4018                	lw	a4,0(s0)
    2762:	00440c93          	addi	s9,s0,4
    2766:	85da                	mv	a1,s6
    2768:	c311                	beqz	a4,276c <print+0x25a>
    276a:	85ba                	mv	a1,a4
    276c:	8752                	mv	a4,s4
    276e:	86be                	mv	a3,a5
    2770:	854e                	mv	a0,s3
    2772:	bdbff0ef          	jal	ra,234c <prints>
    2776:	a825                	j	27ae <print+0x29c>
    2778:	c18d                	beqz	a1,279a <print+0x288>
    277a:	041d                	addi	s0,s0,7
    277c:	ff847593          	andi	a1,s0,-8
    2780:	88c2                	mv	a7,a6
    2782:	00858413          	addi	s0,a1,8
    2786:	883e                	mv	a6,a5
    2788:	4705                	li	a4,1
    278a:	87b2                	mv	a5,a2
    278c:	46a9                	li	a3,10
    278e:	41d0                	lw	a2,4(a1)
    2790:	418c                	lw	a1,0(a1)
    2792:	854e                	mv	a0,s3
    2794:	3b9d                	jal	250a <printLongLongInt>
    2796:	94aa                	add	s1,s1,a0
    2798:	b3d5                	j	257c <print+0x6a>
    279a:	00440c93          	addi	s9,s0,4
    279e:	88d2                	mv	a7,s4
    27a0:	8732                	mv	a4,a2
    27a2:	4685                	li	a3,1
    27a4:	4629                	li	a2,10
    27a6:	400c                	lw	a1,0(s0)
    27a8:	854e                	mv	a0,s3
    27aa:	c7bff0ef          	jal	ra,2424 <printInt>
    27ae:	94aa                	add	s1,s1,a0
    27b0:	8466                	mv	s0,s9
    27b2:	b3e9                	j	257c <print+0x6a>
    27b4:	c999                	beqz	a1,27ca <print+0x2b8>
    27b6:	041d                	addi	s0,s0,7
    27b8:	ff847593          	andi	a1,s0,-8
    27bc:	88c2                	mv	a7,a6
    27be:	00858413          	addi	s0,a1,8
    27c2:	883e                	mv	a6,a5
    27c4:	4701                	li	a4,0
    27c6:	87b2                	mv	a5,a2
    27c8:	b7d1                	j	278c <print+0x27a>
    27ca:	00440c93          	addi	s9,s0,4
    27ce:	88d2                	mv	a7,s4
    27d0:	8732                	mv	a4,a2
    27d2:	4681                	li	a3,0
    27d4:	bfc1                	j	27a4 <print+0x292>
    27d6:	8732                	mv	a4,a2
    27d8:	00440c93          	addi	s9,s0,4
    27dc:	88d2                	mv	a7,s4
    27de:	4681                	li	a3,0
    27e0:	4641                	li	a2,16
    27e2:	b7d1                	j	27a6 <print+0x294>
    27e4:	cd81                	beqz	a1,27fc <print+0x2ea>
    27e6:	041d                	addi	s0,s0,7
    27e8:	ff847593          	andi	a1,s0,-8
    27ec:	88c2                	mv	a7,a6
    27ee:	00858413          	addi	s0,a1,8
    27f2:	883e                	mv	a6,a5
    27f4:	4701                	li	a4,0
    27f6:	87b2                	mv	a5,a2
    27f8:	46a1                	li	a3,8
    27fa:	bf51                	j	278e <print+0x27c>
    27fc:	8732                	mv	a4,a2
    27fe:	00440c93          	addi	s9,s0,4
    2802:	88d2                	mv	a7,s4
    2804:	4681                	li	a3,0
    2806:	4621                	li	a2,8
    2808:	bf79                	j	27a6 <print+0x294>
    280a:	041d                	addi	s0,s0,7
    280c:	ff847593          	andi	a1,s0,-8
    2810:	00858413          	addi	s0,a1,8
    2814:	8732                	mv	a4,a2
    2816:	41d0                	lw	a2,4(a1)
    2818:	418c                	lw	a1,0(a1)
    281a:	88c2                	mv	a7,a6
    281c:	854e                	mv	a0,s3
    281e:	883e                	mv	a6,a5
    2820:	87b6                	mv	a5,a3
    2822:	46a9                	li	a3,10
    2824:	31ed                	jal	250e <printDouble>
    2826:	bf85                	j	2796 <print+0x284>

00002828 <printf>:
    2828:	7139                	addi	sp,sp,-64
    282a:	d22e                	sw	a1,36(sp)
    282c:	d432                	sw	a2,40(sp)
    282e:	85aa                	mv	a1,a0
    2830:	1050                	addi	a2,sp,36
    2832:	4501                	li	a0,0
    2834:	ce06                	sw	ra,28(sp)
    2836:	d636                	sw	a3,44(sp)
    2838:	d83a                	sw	a4,48(sp)
    283a:	da3e                	sw	a5,52(sp)
    283c:	dc42                	sw	a6,56(sp)
    283e:	de46                	sw	a7,60(sp)
    2840:	c632                	sw	a2,12(sp)
    2842:	cd1ff0ef          	jal	ra,2512 <print>
    2846:	40f2                	lw	ra,28(sp)
    2848:	6121                	addi	sp,sp,64
    284a:	8082                	ret

0000284c <puts>:
    284c:	1101                	addi	sp,sp,-32
    284e:	cc22                	sw	s0,24(sp)
    2850:	ca26                	sw	s1,20(sp)
    2852:	ce06                	sw	ra,28(sp)
    2854:	211c                	lbu	a5,0(a0)
    2856:	84aa                	mv	s1,a0
    2858:	4401                	li	s0,0
    285a:	87dc                	sb	a5,15(sp)
    285c:	00f10783          	lb	a5,15(sp)
    2860:	0405                	addi	s0,s0,1
    2862:	ef99                	bnez	a5,2880 <puts+0x34>
    2864:	47a9                	li	a5,10
    2866:	00f10593          	addi	a1,sp,15
    286a:	4605                	li	a2,1
    286c:	4501                	li	a0,0
    286e:	87dc                	sb	a5,15(sp)
    2870:	a57ff0ef          	jal	ra,22c6 <_write>
    2874:	8522                	mv	a0,s0
    2876:	40f2                	lw	ra,28(sp)
    2878:	4462                	lw	s0,24(sp)
    287a:	44d2                	lw	s1,20(sp)
    287c:	6105                	addi	sp,sp,32
    287e:	8082                	ret
    2880:	4605                	li	a2,1
    2882:	00f10593          	addi	a1,sp,15
    2886:	4501                	li	a0,0
    2888:	a3fff0ef          	jal	ra,22c6 <_write>
    288c:	008487b3          	add	a5,s1,s0
    2890:	239c                	lbu	a5,0(a5)
    2892:	87dc                	sb	a5,15(sp)
    2894:	b7e1                	j	285c <puts+0x10>

00002896 <memcpy>:
    2896:	00a5c7b3          	xor	a5,a1,a0
    289a:	8b8d                	andi	a5,a5,3
    289c:	00c50733          	add	a4,a0,a2
    28a0:	e781                	bnez	a5,28a8 <memcpy+0x12>
    28a2:	478d                	li	a5,3
    28a4:	00c7ed63          	bltu	a5,a2,28be <memcpy+0x28>
    28a8:	87aa                	mv	a5,a0
    28aa:	08e57e63          	bgeu	a0,a4,2946 <memcpy+0xb0>
    28ae:	2194                	lbu	a3,0(a1)
    28b0:	0785                	addi	a5,a5,1
    28b2:	0585                	addi	a1,a1,1
    28b4:	fed78fa3          	sb	a3,-1(a5)
    28b8:	fee7ebe3          	bltu	a5,a4,28ae <memcpy+0x18>
    28bc:	8082                	ret
    28be:	00357693          	andi	a3,a0,3
    28c2:	87aa                	mv	a5,a0
    28c4:	ca89                	beqz	a3,28d6 <memcpy+0x40>
    28c6:	2194                	lbu	a3,0(a1)
    28c8:	0785                	addi	a5,a5,1
    28ca:	0585                	addi	a1,a1,1
    28cc:	fed78fa3          	sb	a3,-1(a5)
    28d0:	0037f693          	andi	a3,a5,3
    28d4:	bfc5                	j	28c4 <memcpy+0x2e>
    28d6:	ffc77693          	andi	a3,a4,-4
    28da:	fe068613          	addi	a2,a3,-32
    28de:	06c7f063          	bgeu	a5,a2,293e <memcpy+0xa8>
    28e2:	0005a383          	lw	t2,0(a1)
    28e6:	0045a283          	lw	t0,4(a1)
    28ea:	0085af83          	lw	t6,8(a1)
    28ee:	00c5af03          	lw	t5,12(a1)
    28f2:	0105ae83          	lw	t4,16(a1)
    28f6:	0145ae03          	lw	t3,20(a1)
    28fa:	0185a303          	lw	t1,24(a1)
    28fe:	01c5a883          	lw	a7,28(a1)
    2902:	02458593          	addi	a1,a1,36
    2906:	0077a023          	sw	t2,0(a5)
    290a:	ffc5a803          	lw	a6,-4(a1)
    290e:	0057a223          	sw	t0,4(a5)
    2912:	01f7a423          	sw	t6,8(a5)
    2916:	01e7a623          	sw	t5,12(a5)
    291a:	01d7a823          	sw	t4,16(a5)
    291e:	01c7aa23          	sw	t3,20(a5)
    2922:	0067ac23          	sw	t1,24(a5)
    2926:	0117ae23          	sw	a7,28(a5)
    292a:	02478793          	addi	a5,a5,36
    292e:	ff07ae23          	sw	a6,-4(a5)
    2932:	b775                	j	28de <memcpy+0x48>
    2934:	4190                	lw	a2,0(a1)
    2936:	0791                	addi	a5,a5,4
    2938:	0591                	addi	a1,a1,4
    293a:	fec7ae23          	sw	a2,-4(a5)
    293e:	fed7ebe3          	bltu	a5,a3,2934 <memcpy+0x9e>
    2942:	f6e7e6e3          	bltu	a5,a4,28ae <memcpy+0x18>
    2946:	8082                	ret
    2948:	74737953          	0x74737953
    294c:	6d65                	lui	s10,0x19
    294e:	3a6b6c43          	fmadd.d	fs8,fs6,ft6,ft7,unknown
    2952:	6425                	lui	s0,0x9
    2954:	0a0d                	addi	s4,s4,3
    2956:	0000                	unimp
    2958:	3156                	lhu	a3,36(a0)
    295a:	2e30                	lbu	a2,26(a2)
    295c:	2e34                	lbu	a3,26(a2)
    295e:	0036                	c.slli	zero,0xd
    2960:	7246                	flw	ft4,112(sp)
    2962:	6565                	lui	a0,0x19
    2964:	5452                	lw	s0,52(sp)
    2966:	4b20534f          	fnmadd.d	ft6,ft0,fs2,fs1,unknown
    296a:	7265                	lui	tp,0xffff9
    296c:	656e                	flw	fa0,216(sp)
    296e:	206c                	lbu	a1,6(s0)
    2970:	6556                	flw	fa0,84(sp)
    2972:	7372                	flw	ft6,60(sp)
    2974:	6f69                	lui	t5,0x1a
    2976:	3a6e                	lhu	a1,54(a2)
    2978:	7325                	lui	t1,0xfffe9
    297a:	0a0d                	addi	s4,s4,3
    297c:	0000                	unimp
    297e:	0000                	unimp
    2980:	6174                	flw	fa3,68(a0)
    2982:	00326b73          	csrrsi	s6,fcsr,4
    2986:	0000                	unimp
    2988:	6174                	flw	fa3,68(a0)
    298a:	00316b73          	csrrsi	s6,fcsr,2
    298e:	0000                	unimp
    2990:	756f6873          	csrrsi	a6,0x756,30
    2994:	646c                	flw	fa1,76(s0)
    2996:	276e                	lhu	a1,14(a4)
    2998:	2074                	lbu	a3,6(s0)
    299a:	7572                	flw	fa0,60(sp)
    299c:	206e                	lhu	a1,6(s0)
    299e:	7461                	lui	s0,0xffff8
    29a0:	6820                	flw	fs0,80(s0)
    29a2:	7265                	lui	tp,0xffff9
    29a4:	2165                	jal	2e4c <_data_lma+0x394>
    29a6:	0021                	c.nop	8
    29a8:	2079656b          	0x2079656b
    29ac:	7270                	flw	fa2,100(a2)
    29ae:	7365                	lui	t1,0xffff9
    29b0:	21212173          	csrrs	sp,0x212,sp
    29b4:	6120                	flw	fs0,64(a0)
    29b6:	6161                	addi	sp,sp,80
    29b8:	253d                	jal	2fe6 <_data_lma+0x52e>
    29ba:	0d64                	addi	s1,sp,668
    29bc:	000a                	c.slli	zero,0x2
    29be:	0000                	unimp
    29c0:	2e2e                	lhu	a1,26(a2)
    29c2:	6572462f          	0x6572462f
    29c6:	5265                	li	tp,-7
    29c8:	4f54                	lw	a3,28(a4)
    29ca:	6f702f53          	0x6f702f53
    29ce:	7472                	flw	fs0,60(sp)
    29d0:	6261                	lui	tp,0x18
    29d2:	656c                	flw	fa1,76(a0)
    29d4:	6d654d2f          	0x6d654d2f
    29d8:	614d                	addi	sp,sp,176
    29da:	676e                	flw	fa4,216(sp)
    29dc:	6165682f          	0x6165682f
    29e0:	5f70                	lw	a2,124(a4)
    29e2:	2e34                	lbu	a3,26(a2)
    29e4:	00000063          	beqz	zero,29e4 <memcpy+0x14e>
    29e8:	7265                	lui	tp,0xffff9
    29ea:	2072                	lhu	a2,6(s0)
    29ec:	7461                	lui	s0,0xffff8
    29ee:	6c20                	flw	fs0,88(s0)
    29f0:	6e69                	lui	t3,0x1a
    29f2:	2065                	jal	2a9a <memcpy+0x204>
    29f4:	6425                	lui	s0,0x9
    29f6:	6f20                	flw	fs0,88(a4)
    29f8:	2066                	lhu	s1,6(s0)
    29fa:	6966                	flw	fs2,88(sp)
    29fc:	656c                	flw	fa1,76(a0)
    29fe:	2220                	lbu	s0,2(a2)
    2a00:	7325                	lui	t1,0xfffe9
    2a02:	2e22                	lhu	s0,26(a2)
    2a04:	0d20                	addi	s0,sp,664
    2a06:	200a                	lhu	a0,0(s0)
    2a08:	0000                	unimp
    2a0a:	0000                	unimp
    2a0c:	2e2e                	lhu	a1,26(a2)
    2a0e:	6572462f          	0x6572462f
    2a12:	5265                	li	tp,-7
    2a14:	4f54                	lw	a3,28(a4)
    2a16:	6f702f53          	0x6f702f53
    2a1a:	7472                	flw	fs0,60(sp)
    2a1c:	6261                	lui	tp,0x18
    2a1e:	656c                	flw	fa1,76(a0)
    2a20:	4343472f          	0x4343472f
    2a24:	5349522f          	0x5349522f
    2a28:	2f562d43          	fmadd.q	fs10,fa2,fs5,ft5,rdn
    2a2c:	6f70                	flw	fa2,92(a4)
    2a2e:	7472                	flw	fs0,60(sp)
    2a30:	632e                	flw	ft6,200(sp)
    2a32:	0000                	unimp
    2a34:	2e2e                	lhu	a1,26(a2)
    2a36:	6572462f          	0x6572462f
    2a3a:	5265                	li	tp,-7
    2a3c:	4f54                	lw	a3,28(a4)
    2a3e:	75712f53          	0x75712f53
    2a42:	7565                	lui	a0,0xffff9
    2a44:	2e65                	jal	2dfc <_data_lma+0x344>
    2a46:	2e2e0063          	beq	t3,sp,2d26 <_data_lma+0x26e>
    2a4a:	6572462f          	0x6572462f
    2a4e:	5265                	li	tp,-7
    2a50:	4f54                	lw	a3,28(a4)
    2a52:	61742f53          	0x61742f53
    2a56:	2e736b73          	csrrsi	s6,0x2e7,6
    2a5a:	44490063          	beq	s2,tp,2e9a <_data_lma+0x3e2>
    2a5e:	454c                	lw	a1,12(a0)
    2a60:	0000                	unimp
    2a62:	0000                	unimp
    2a64:	2140                	lbu	s0,4(a0)
    2a66:	0000                	unimp
    2a68:	2140                	lbu	s0,4(a0)
    2a6a:	0000                	unimp
    2a6c:	2180                	lbu	s0,0(a1)
    2a6e:	0000                	unimp
    2a70:	218c                	lbu	a1,0(a1)
    2a72:	0000                	unimp
    2a74:	21cc                	lbu	a1,4(a1)
    2a76:	0000                	unimp
    2a78:	2140                	lbu	s0,4(a0)
    2a7a:	0000                	unimp
    2a7c:	2140                	lbu	s0,4(a0)
    2a7e:	0000                	unimp
    2a80:	2180                	lbu	s0,0(a1)
    2a82:	0000                	unimp
    2a84:	218c                	lbu	a1,0(a1)
    2a86:	0000                	unimp
    2a88:	6d54                	flw	fa3,28(a0)
    2a8a:	5172                	lw	sp,60(sp)
    2a8c:	0000                	unimp
    2a8e:	0000                	unimp
    2a90:	2e2e                	lhu	a1,26(a2)
    2a92:	6572462f          	0x6572462f
    2a96:	5265                	li	tp,-7
    2a98:	4f54                	lw	a3,28(a4)
    2a9a:	69742f53          	0x69742f53
    2a9e:	656d                	lui	a0,0x1b
    2aa0:	7372                	flw	ft6,60(sp)
    2aa2:	632e                	flw	ft6,200(sp)
    2aa4:	0000                	unimp
    2aa6:	0000                	unimp
    2aa8:	6d54                	flw	fa3,28(a0)
    2aaa:	2072                	lhu	a2,6(s0)
    2aac:	00637653          	fadd.s	fa2,ft6,ft6
    2ab0:	6e28                	flw	fa0,88(a2)
    2ab2:	6c75                	lui	s8,0x1d
    2ab4:	296c                	lbu	a1,22(a0)
	...
